ARM GAS  C:\Users\SWAPNIL\AppData\Local\Temp\ccz0uBy2.s 			page 1


   1              		.syntax unified
   2              		.cpu cortex-m3
   3              		.fpu softvfp
   4              		.eabi_attribute 20, 1
   5              		.eabi_attribute 21, 1
   6              		.eabi_attribute 23, 3
   7              		.eabi_attribute 24, 1
   8              		.eabi_attribute 25, 1
   9              		.eabi_attribute 26, 1
  10              		.eabi_attribute 30, 1
  11              		.eabi_attribute 34, 1
  12              		.eabi_attribute 18, 4
  13              		.thumb
  14              		.syntax unified
  15              		.file	"cyfitter_cfg.c"
  16              		.text
  17              	.Ltext0:
  18              		.cfi_sections	.debug_frame
  19              		.section	.text.CyClockStartupError,"ax",%progbits
  20              		.align	2
  21              		.thumb
  22              		.thumb_func
  23              		.type	CyClockStartupError, %function
  24              	CyClockStartupError:
  25              	.LFB3:
  26              		.file 1 "Generated_Source\\PSoC5\\cyfitter_cfg.c"
   1:Generated_Source\PSoC5/cyfitter_cfg.c **** 
   2:Generated_Source\PSoC5/cyfitter_cfg.c **** /*******************************************************************************
   3:Generated_Source\PSoC5/cyfitter_cfg.c **** * File Name: cyfitter_cfg.c
   4:Generated_Source\PSoC5/cyfitter_cfg.c **** * 
   5:Generated_Source\PSoC5/cyfitter_cfg.c **** * PSoC Creator  4.4
   6:Generated_Source\PSoC5/cyfitter_cfg.c **** *
   7:Generated_Source\PSoC5/cyfitter_cfg.c **** * Description:
   8:Generated_Source\PSoC5/cyfitter_cfg.c **** * This file contains device initialization code.
   9:Generated_Source\PSoC5/cyfitter_cfg.c **** * Except for the user defined sections in CyClockStartupError(), this file should not be modified.
  10:Generated_Source\PSoC5/cyfitter_cfg.c **** * This file is automatically generated by PSoC Creator.
  11:Generated_Source\PSoC5/cyfitter_cfg.c **** *
  12:Generated_Source\PSoC5/cyfitter_cfg.c **** ********************************************************************************
  13:Generated_Source\PSoC5/cyfitter_cfg.c **** * Copyright (c) 2007-2020 Cypress Semiconductor.  All rights reserved.
  14:Generated_Source\PSoC5/cyfitter_cfg.c **** * You may use this file only in accordance with the license, terms, conditions, 
  15:Generated_Source\PSoC5/cyfitter_cfg.c **** * disclaimers, and limitations in the end user license agreement accompanying 
  16:Generated_Source\PSoC5/cyfitter_cfg.c **** * the software package with which this file was provided.
  17:Generated_Source\PSoC5/cyfitter_cfg.c **** ********************************************************************************/
  18:Generated_Source\PSoC5/cyfitter_cfg.c **** 
  19:Generated_Source\PSoC5/cyfitter_cfg.c **** #include <string.h>
  20:Generated_Source\PSoC5/cyfitter_cfg.c **** #include "cytypes.h"
  21:Generated_Source\PSoC5/cyfitter_cfg.c **** #include "cydevice_trm.h"
  22:Generated_Source\PSoC5/cyfitter_cfg.c **** #include "cyfitter.h"
  23:Generated_Source\PSoC5/cyfitter_cfg.c **** #include "CyLib.h"
  24:Generated_Source\PSoC5/cyfitter_cfg.c **** #include "cyfitter_cfg.h"
  25:Generated_Source\PSoC5/cyfitter_cfg.c **** #include "cyapicallbacks.h"
  26:Generated_Source\PSoC5/cyfitter_cfg.c **** 
  27:Generated_Source\PSoC5/cyfitter_cfg.c **** #define CY_NEED_CYCLOCKSTARTUPERROR 1
  28:Generated_Source\PSoC5/cyfitter_cfg.c **** 
  29:Generated_Source\PSoC5/cyfitter_cfg.c **** 
  30:Generated_Source\PSoC5/cyfitter_cfg.c **** #if defined(__GNUC__) || defined(__ARMCC_VERSION)
  31:Generated_Source\PSoC5/cyfitter_cfg.c ****     #define CYPACKED 
ARM GAS  C:\Users\SWAPNIL\AppData\Local\Temp\ccz0uBy2.s 			page 2


  32:Generated_Source\PSoC5/cyfitter_cfg.c ****     #define CYPACKED_ATTR __attribute__ ((packed))
  33:Generated_Source\PSoC5/cyfitter_cfg.c ****     #define CYALIGNED __attribute__ ((aligned))
  34:Generated_Source\PSoC5/cyfitter_cfg.c ****     #define CY_CFG_UNUSED __attribute__ ((unused))
  35:Generated_Source\PSoC5/cyfitter_cfg.c ****     #ifndef CY_CFG_SECTION
  36:Generated_Source\PSoC5/cyfitter_cfg.c ****         #define CY_CFG_SECTION __attribute__ ((section(".psocinit")))
  37:Generated_Source\PSoC5/cyfitter_cfg.c ****     #endif
  38:Generated_Source\PSoC5/cyfitter_cfg.c ****     
  39:Generated_Source\PSoC5/cyfitter_cfg.c ****     #if defined(__ARMCC_VERSION)
  40:Generated_Source\PSoC5/cyfitter_cfg.c ****         #define CY_CFG_MEMORY_BARRIER() __memory_changed()
  41:Generated_Source\PSoC5/cyfitter_cfg.c ****     #else
  42:Generated_Source\PSoC5/cyfitter_cfg.c ****         #define CY_CFG_MEMORY_BARRIER() __sync_synchronize()
  43:Generated_Source\PSoC5/cyfitter_cfg.c ****     #endif
  44:Generated_Source\PSoC5/cyfitter_cfg.c ****     
  45:Generated_Source\PSoC5/cyfitter_cfg.c **** #elif defined(__ICCARM__)
  46:Generated_Source\PSoC5/cyfitter_cfg.c ****     #include <intrinsics.h>
  47:Generated_Source\PSoC5/cyfitter_cfg.c **** 
  48:Generated_Source\PSoC5/cyfitter_cfg.c ****     #define CYPACKED __packed
  49:Generated_Source\PSoC5/cyfitter_cfg.c ****     #define CYPACKED_ATTR 
  50:Generated_Source\PSoC5/cyfitter_cfg.c ****     #define CYALIGNED _Pragma("data_alignment=4")
  51:Generated_Source\PSoC5/cyfitter_cfg.c ****     #define CY_CFG_UNUSED _Pragma("diag_suppress=Pe177")
  52:Generated_Source\PSoC5/cyfitter_cfg.c ****     #define CY_CFG_SECTION _Pragma("location=\".psocinit\"")
  53:Generated_Source\PSoC5/cyfitter_cfg.c ****     
  54:Generated_Source\PSoC5/cyfitter_cfg.c ****     #define CY_CFG_MEMORY_BARRIER() __DMB()
  55:Generated_Source\PSoC5/cyfitter_cfg.c ****     
  56:Generated_Source\PSoC5/cyfitter_cfg.c **** #else
  57:Generated_Source\PSoC5/cyfitter_cfg.c ****     #error Unsupported toolchain
  58:Generated_Source\PSoC5/cyfitter_cfg.c **** #endif
  59:Generated_Source\PSoC5/cyfitter_cfg.c **** 
  60:Generated_Source\PSoC5/cyfitter_cfg.c **** #ifndef CYCODE
  61:Generated_Source\PSoC5/cyfitter_cfg.c ****     #define CYCODE
  62:Generated_Source\PSoC5/cyfitter_cfg.c **** #endif
  63:Generated_Source\PSoC5/cyfitter_cfg.c **** #ifndef CYDATA
  64:Generated_Source\PSoC5/cyfitter_cfg.c ****     #define CYDATA
  65:Generated_Source\PSoC5/cyfitter_cfg.c **** #endif
  66:Generated_Source\PSoC5/cyfitter_cfg.c **** #ifndef CYFAR
  67:Generated_Source\PSoC5/cyfitter_cfg.c ****     #define CYFAR
  68:Generated_Source\PSoC5/cyfitter_cfg.c **** #endif
  69:Generated_Source\PSoC5/cyfitter_cfg.c **** #ifndef CYXDATA
  70:Generated_Source\PSoC5/cyfitter_cfg.c ****     #define CYXDATA
  71:Generated_Source\PSoC5/cyfitter_cfg.c **** #endif
  72:Generated_Source\PSoC5/cyfitter_cfg.c **** 
  73:Generated_Source\PSoC5/cyfitter_cfg.c **** 
  74:Generated_Source\PSoC5/cyfitter_cfg.c **** CY_CFG_UNUSED
  75:Generated_Source\PSoC5/cyfitter_cfg.c **** static void CYMEMZERO(void *s, size_t n);
  76:Generated_Source\PSoC5/cyfitter_cfg.c **** CY_CFG_UNUSED
  77:Generated_Source\PSoC5/cyfitter_cfg.c **** static void CYMEMZERO(void *s, size_t n)
  78:Generated_Source\PSoC5/cyfitter_cfg.c **** {
  79:Generated_Source\PSoC5/cyfitter_cfg.c **** 	(void)memset(s, 0, n);
  80:Generated_Source\PSoC5/cyfitter_cfg.c **** }
  81:Generated_Source\PSoC5/cyfitter_cfg.c **** CY_CFG_UNUSED
  82:Generated_Source\PSoC5/cyfitter_cfg.c **** static void CYCONFIGCPY(void *dest, const void *src, size_t n);
  83:Generated_Source\PSoC5/cyfitter_cfg.c **** CY_CFG_UNUSED
  84:Generated_Source\PSoC5/cyfitter_cfg.c **** static void CYCONFIGCPY(void *dest, const void *src, size_t n)
  85:Generated_Source\PSoC5/cyfitter_cfg.c **** {
  86:Generated_Source\PSoC5/cyfitter_cfg.c **** 	(void)memcpy(dest, src, n);
  87:Generated_Source\PSoC5/cyfitter_cfg.c **** }
  88:Generated_Source\PSoC5/cyfitter_cfg.c **** CY_CFG_UNUSED
ARM GAS  C:\Users\SWAPNIL\AppData\Local\Temp\ccz0uBy2.s 			page 3


  89:Generated_Source\PSoC5/cyfitter_cfg.c **** static void CYCONFIGCPYCODE(void *dest, const void *src, size_t n);
  90:Generated_Source\PSoC5/cyfitter_cfg.c **** CY_CFG_UNUSED
  91:Generated_Source\PSoC5/cyfitter_cfg.c **** static void CYCONFIGCPYCODE(void *dest, const void *src, size_t n)
  92:Generated_Source\PSoC5/cyfitter_cfg.c **** {
  93:Generated_Source\PSoC5/cyfitter_cfg.c **** 	(void)memcpy(dest, src, n);
  94:Generated_Source\PSoC5/cyfitter_cfg.c **** }
  95:Generated_Source\PSoC5/cyfitter_cfg.c **** 
  96:Generated_Source\PSoC5/cyfitter_cfg.c **** 
  97:Generated_Source\PSoC5/cyfitter_cfg.c **** 
  98:Generated_Source\PSoC5/cyfitter_cfg.c **** 
  99:Generated_Source\PSoC5/cyfitter_cfg.c **** /* Clock startup error codes                                                   */
 100:Generated_Source\PSoC5/cyfitter_cfg.c **** #define CYCLOCKSTART_NO_ERROR    0u
 101:Generated_Source\PSoC5/cyfitter_cfg.c **** #define CYCLOCKSTART_XTAL_ERROR  1u
 102:Generated_Source\PSoC5/cyfitter_cfg.c **** #define CYCLOCKSTART_32KHZ_ERROR 2u
 103:Generated_Source\PSoC5/cyfitter_cfg.c **** #define CYCLOCKSTART_PLL_ERROR   3u
 104:Generated_Source\PSoC5/cyfitter_cfg.c **** #define CYCLOCKSTART_FLL_ERROR   4u
 105:Generated_Source\PSoC5/cyfitter_cfg.c **** #define CYCLOCKSTART_WCO_ERROR   5u
 106:Generated_Source\PSoC5/cyfitter_cfg.c **** 
 107:Generated_Source\PSoC5/cyfitter_cfg.c **** 
 108:Generated_Source\PSoC5/cyfitter_cfg.c **** #ifdef CY_NEED_CYCLOCKSTARTUPERROR
 109:Generated_Source\PSoC5/cyfitter_cfg.c **** /*******************************************************************************
 110:Generated_Source\PSoC5/cyfitter_cfg.c **** * Function Name: CyClockStartupError
 111:Generated_Source\PSoC5/cyfitter_cfg.c **** ********************************************************************************
 112:Generated_Source\PSoC5/cyfitter_cfg.c **** * Summary:
 113:Generated_Source\PSoC5/cyfitter_cfg.c **** *  If an error is encountered during clock configuration (crystal startup error,
 114:Generated_Source\PSoC5/cyfitter_cfg.c **** *  PLL lock error, etc.), the system will end up here.  Unless reimplemented by
 115:Generated_Source\PSoC5/cyfitter_cfg.c **** *  the customer, this function will stop in an infinite loop.
 116:Generated_Source\PSoC5/cyfitter_cfg.c **** *
 117:Generated_Source\PSoC5/cyfitter_cfg.c **** * Parameters:
 118:Generated_Source\PSoC5/cyfitter_cfg.c **** *   void
 119:Generated_Source\PSoC5/cyfitter_cfg.c **** *
 120:Generated_Source\PSoC5/cyfitter_cfg.c **** * Return:
 121:Generated_Source\PSoC5/cyfitter_cfg.c **** *   void
 122:Generated_Source\PSoC5/cyfitter_cfg.c **** *
 123:Generated_Source\PSoC5/cyfitter_cfg.c **** *******************************************************************************/
 124:Generated_Source\PSoC5/cyfitter_cfg.c **** CY_CFG_UNUSED
 125:Generated_Source\PSoC5/cyfitter_cfg.c **** static void CyClockStartupError(uint8 errorCode);
 126:Generated_Source\PSoC5/cyfitter_cfg.c **** CY_CFG_UNUSED
 127:Generated_Source\PSoC5/cyfitter_cfg.c **** static void CyClockStartupError(uint8 errorCode)
 128:Generated_Source\PSoC5/cyfitter_cfg.c **** {
  27              		.loc 1 128 0
  28              		.cfi_startproc
  29              		@ Volatile: function does not return.
  30              		@ args = 0, pretend = 0, frame = 0
  31              		@ frame_needed = 0, uses_anonymous_args = 0
  32              		@ link register save eliminated.
  33              	.LVL0:
  34              	.L2:
  35 0000 FEE7     		b	.L2
  36              		.cfi_endproc
  37              	.LFE3:
  38              		.size	CyClockStartupError, .-CyClockStartupError
  39 0002 00BF     		.section	.text.cfg_write_bytes32,"ax",%progbits
  40              		.align	2
  41              		.thumb
  42              		.thumb_func
  43              		.type	cfg_write_bytes32, %function
ARM GAS  C:\Users\SWAPNIL\AppData\Local\Temp\ccz0uBy2.s 			page 4


  44              	cfg_write_bytes32:
  45              	.LFB4:
 129:Generated_Source\PSoC5/cyfitter_cfg.c ****     /* To remove the compiler warning if errorCode not used.                */
 130:Generated_Source\PSoC5/cyfitter_cfg.c ****     errorCode = errorCode;
 131:Generated_Source\PSoC5/cyfitter_cfg.c **** 
 132:Generated_Source\PSoC5/cyfitter_cfg.c ****     /* If we have a clock startup error (bad MHz crystal, PLL lock, etc.),  */
 133:Generated_Source\PSoC5/cyfitter_cfg.c ****     /* we will end up here to allow the customer to implement something to  */
 134:Generated_Source\PSoC5/cyfitter_cfg.c ****     /* deal with the clock condition.                                       */
 135:Generated_Source\PSoC5/cyfitter_cfg.c **** 
 136:Generated_Source\PSoC5/cyfitter_cfg.c **** #ifdef CY_CFG_CLOCK_STARTUP_ERROR_CALLBACK
 137:Generated_Source\PSoC5/cyfitter_cfg.c ****     CY_CFG_Clock_Startup_ErrorCallback();
 138:Generated_Source\PSoC5/cyfitter_cfg.c **** #else
 139:Generated_Source\PSoC5/cyfitter_cfg.c ****     /*  If not using CY_CFG_CLOCK_STARTUP_ERROR_CALLBACK, place your clock startup code here. */
 140:Generated_Source\PSoC5/cyfitter_cfg.c ****     /* `#START CyClockStartupError` */
 141:Generated_Source\PSoC5/cyfitter_cfg.c **** 
 142:Generated_Source\PSoC5/cyfitter_cfg.c **** 
 143:Generated_Source\PSoC5/cyfitter_cfg.c **** 
 144:Generated_Source\PSoC5/cyfitter_cfg.c ****     /* `#END` */
 145:Generated_Source\PSoC5/cyfitter_cfg.c **** 
 146:Generated_Source\PSoC5/cyfitter_cfg.c ****     while(1) {}
 147:Generated_Source\PSoC5/cyfitter_cfg.c **** #endif /* CY_CFG_CLOCK_STARTUP_ERROR_CALLBACK */
 148:Generated_Source\PSoC5/cyfitter_cfg.c **** }
 149:Generated_Source\PSoC5/cyfitter_cfg.c **** #endif
 150:Generated_Source\PSoC5/cyfitter_cfg.c **** 
 151:Generated_Source\PSoC5/cyfitter_cfg.c **** #define CY_CFG_BASE_ADDR_COUNT 29u
 152:Generated_Source\PSoC5/cyfitter_cfg.c **** CYPACKED typedef struct
 153:Generated_Source\PSoC5/cyfitter_cfg.c **** {
 154:Generated_Source\PSoC5/cyfitter_cfg.c **** 	uint8 offset;
 155:Generated_Source\PSoC5/cyfitter_cfg.c **** 	uint8 value;
 156:Generated_Source\PSoC5/cyfitter_cfg.c **** } CYPACKED_ATTR cy_cfg_addrvalue_t;
 157:Generated_Source\PSoC5/cyfitter_cfg.c **** 
 158:Generated_Source\PSoC5/cyfitter_cfg.c **** #define cy_cfg_addr_table ((const uint32 CYFAR *)0x48000000u)
 159:Generated_Source\PSoC5/cyfitter_cfg.c **** #define cy_cfg_data_table ((const cy_cfg_addrvalue_t CYFAR *)0x48000074u)
 160:Generated_Source\PSoC5/cyfitter_cfg.c **** 
 161:Generated_Source\PSoC5/cyfitter_cfg.c **** /* UDB_1_3_0_CONFIG Address: CYDEV_UCFG_B0_P2_U0_BASE Size (bytes): 128 */
 162:Generated_Source\PSoC5/cyfitter_cfg.c **** #define BS_UDB_1_3_0_CONFIG_VAL ((const uint8 CYFAR *)0x480003DCu)
 163:Generated_Source\PSoC5/cyfitter_cfg.c **** 
 164:Generated_Source\PSoC5/cyfitter_cfg.c **** /* IOPINS0_0 Address: CYREG_PRT0_DM0 Size (bytes): 8 */
 165:Generated_Source\PSoC5/cyfitter_cfg.c **** #define BS_IOPINS0_0_VAL ((const uint8 CYFAR *)0x4800045Cu)
 166:Generated_Source\PSoC5/cyfitter_cfg.c **** 
 167:Generated_Source\PSoC5/cyfitter_cfg.c **** /* IOPINS0_7 Address: CYREG_PRT12_DM0 Size (bytes): 8 */
 168:Generated_Source\PSoC5/cyfitter_cfg.c **** #define BS_IOPINS0_7_VAL ((const uint8 CYFAR *)0x48000464u)
 169:Generated_Source\PSoC5/cyfitter_cfg.c **** 
 170:Generated_Source\PSoC5/cyfitter_cfg.c **** /* IOPINS0_8 Address: CYREG_PRT15_DR Size (bytes): 10 */
 171:Generated_Source\PSoC5/cyfitter_cfg.c **** #define BS_IOPINS0_8_VAL ((const uint8 CYFAR *)0x4800046Cu)
 172:Generated_Source\PSoC5/cyfitter_cfg.c **** 
 173:Generated_Source\PSoC5/cyfitter_cfg.c **** /* IOPINS0_1 Address: CYREG_PRT1_DM0 Size (bytes): 8 */
 174:Generated_Source\PSoC5/cyfitter_cfg.c **** #define BS_IOPINS0_1_VAL ((const uint8 CYFAR *)0x48000478u)
 175:Generated_Source\PSoC5/cyfitter_cfg.c **** 
 176:Generated_Source\PSoC5/cyfitter_cfg.c **** /* IOPINS0_2 Address: CYREG_PRT2_DM0 Size (bytes): 8 */
 177:Generated_Source\PSoC5/cyfitter_cfg.c **** #define BS_IOPINS0_2_VAL ((const uint8 CYFAR *)0x48000480u)
 178:Generated_Source\PSoC5/cyfitter_cfg.c **** 
 179:Generated_Source\PSoC5/cyfitter_cfg.c **** /* IOPINS0_3 Address: CYREG_PRT3_DM0 Size (bytes): 8 */
 180:Generated_Source\PSoC5/cyfitter_cfg.c **** #define BS_IOPINS0_3_VAL ((const uint8 CYFAR *)0x48000488u)
 181:Generated_Source\PSoC5/cyfitter_cfg.c **** 
 182:Generated_Source\PSoC5/cyfitter_cfg.c **** /* IOPINS0_4 Address: CYREG_PRT4_DR Size (bytes): 10 */
 183:Generated_Source\PSoC5/cyfitter_cfg.c **** #define BS_IOPINS0_4_VAL ((const uint8 CYFAR *)0x48000490u)
ARM GAS  C:\Users\SWAPNIL\AppData\Local\Temp\ccz0uBy2.s 			page 5


 184:Generated_Source\PSoC5/cyfitter_cfg.c **** 
 185:Generated_Source\PSoC5/cyfitter_cfg.c **** /* CYDEV_CLKDIST_ACFG0_CFG0 Address: CYREG_CLKDIST_ACFG0_CFG0 Size (bytes): 4 */
 186:Generated_Source\PSoC5/cyfitter_cfg.c **** #define BS_CYDEV_CLKDIST_ACFG0_CFG0_VAL ((const uint8 CYFAR *)0x4800049Cu)
 187:Generated_Source\PSoC5/cyfitter_cfg.c **** 
 188:Generated_Source\PSoC5/cyfitter_cfg.c **** 
 189:Generated_Source\PSoC5/cyfitter_cfg.c **** /*******************************************************************************
 190:Generated_Source\PSoC5/cyfitter_cfg.c **** * Function Name: cfg_write_bytes32
 191:Generated_Source\PSoC5/cyfitter_cfg.c **** ********************************************************************************
 192:Generated_Source\PSoC5/cyfitter_cfg.c **** * Summary:
 193:Generated_Source\PSoC5/cyfitter_cfg.c **** *  This function is used for setting up the chip configuration areas that
 194:Generated_Source\PSoC5/cyfitter_cfg.c **** *  contain relatively sparse data.
 195:Generated_Source\PSoC5/cyfitter_cfg.c **** *
 196:Generated_Source\PSoC5/cyfitter_cfg.c **** * Parameters:
 197:Generated_Source\PSoC5/cyfitter_cfg.c **** *   void
 198:Generated_Source\PSoC5/cyfitter_cfg.c **** *
 199:Generated_Source\PSoC5/cyfitter_cfg.c **** * Return:
 200:Generated_Source\PSoC5/cyfitter_cfg.c **** *   void
 201:Generated_Source\PSoC5/cyfitter_cfg.c **** *
 202:Generated_Source\PSoC5/cyfitter_cfg.c **** *******************************************************************************/
 203:Generated_Source\PSoC5/cyfitter_cfg.c **** static void cfg_write_bytes32(const uint32 addr_table[], const cy_cfg_addrvalue_t data_table[]);
 204:Generated_Source\PSoC5/cyfitter_cfg.c **** static void cfg_write_bytes32(const uint32 addr_table[], const cy_cfg_addrvalue_t data_table[])
 205:Generated_Source\PSoC5/cyfitter_cfg.c **** {
  46              		.loc 1 205 0
  47              		.cfi_startproc
  48              		@ args = 0, pretend = 0, frame = 0
  49              		@ frame_needed = 0, uses_anonymous_args = 0
  50              		@ link register save eliminated.
  51              	.LVL1:
  52              		.loc 1 205 0
  53 0000 F0B4     		push	{r4, r5, r6, r7}
  54              		.cfi_def_cfa_offset 16
  55              		.cfi_offset 4, -16
  56              		.cfi_offset 5, -12
  57              		.cfi_offset 6, -8
  58              		.cfi_offset 7, -4
  59              	.LVL2:
 206:Generated_Source\PSoC5/cyfitter_cfg.c **** 	/* For 32-bit little-endian architectures */
 207:Generated_Source\PSoC5/cyfitter_cfg.c **** 	uint32 i, j = 0u;
  60              		.loc 1 207 0
  61 0002 0022     		movs	r2, #0
 208:Generated_Source\PSoC5/cyfitter_cfg.c **** 	for (i = 0u; i < CY_CFG_BASE_ADDR_COUNT; i++)
  62              		.loc 1 208 0
  63 0004 1746     		mov	r7, r2
  64 0006 11E0     		b	.L4
  65              	.LVL3:
  66              	.L7:
  67              	.LBB2:
 209:Generated_Source\PSoC5/cyfitter_cfg.c **** 	{
 210:Generated_Source\PSoC5/cyfitter_cfg.c **** 		uint32 baseAddr = addr_table[i];
  68              		.loc 1 210 0
  69 0008 50F82760 		ldr	r6, [r0, r7, lsl #2]
  70              	.LVL4:
 211:Generated_Source\PSoC5/cyfitter_cfg.c **** 		uint8 count = (uint8)baseAddr;
  71              		.loc 1 211 0
  72 000c F3B2     		uxtb	r3, r6
  73              	.LVL5:
 212:Generated_Source\PSoC5/cyfitter_cfg.c **** 		baseAddr &= 0xFFFFFF00u;
ARM GAS  C:\Users\SWAPNIL\AppData\Local\Temp\ccz0uBy2.s 			page 6


  74              		.loc 1 212 0
  75 000e 26F0FF06 		bic	r6, r6, #255
  76              	.LVL6:
 213:Generated_Source\PSoC5/cyfitter_cfg.c **** 		while (count != 0u)
  77              		.loc 1 213 0
  78 0012 08E0     		b	.L5
  79              	.L6:
 214:Generated_Source\PSoC5/cyfitter_cfg.c **** 		{
 215:Generated_Source\PSoC5/cyfitter_cfg.c **** 			CY_SET_REG8((void *)(baseAddr + data_table[j].offset), data_table[j].value);
  80              		.loc 1 215 0
  81 0014 01EB4205 		add	r5, r1, r2, lsl #1
  82 0018 11F81240 		ldrb	r4, [r1, r2, lsl #1]	@ zero_extendqisi2
  83 001c 6D78     		ldrb	r5, [r5, #1]	@ zero_extendqisi2
  84 001e A555     		strb	r5, [r4, r6]
 216:Generated_Source\PSoC5/cyfitter_cfg.c **** 			j++;
  85              		.loc 1 216 0
  86 0020 0132     		adds	r2, r2, #1
  87              	.LVL7:
 217:Generated_Source\PSoC5/cyfitter_cfg.c **** 			count--;
  88              		.loc 1 217 0
  89 0022 013B     		subs	r3, r3, #1
  90              	.LVL8:
  91 0024 DBB2     		uxtb	r3, r3
  92              	.LVL9:
  93              	.L5:
 213:Generated_Source\PSoC5/cyfitter_cfg.c **** 		{
  94              		.loc 1 213 0
  95 0026 002B     		cmp	r3, #0
  96 0028 F4D1     		bne	.L6
  97              	.LBE2:
 208:Generated_Source\PSoC5/cyfitter_cfg.c **** 	{
  98              		.loc 1 208 0 discriminator 2
  99 002a 0137     		adds	r7, r7, #1
 100              	.LVL10:
 101              	.L4:
 208:Generated_Source\PSoC5/cyfitter_cfg.c **** 	{
 102              		.loc 1 208 0 is_stmt 0 discriminator 1
 103 002c 1C2F     		cmp	r7, #28
 104 002e EBD9     		bls	.L7
 218:Generated_Source\PSoC5/cyfitter_cfg.c **** 		}
 219:Generated_Source\PSoC5/cyfitter_cfg.c **** 	}
 220:Generated_Source\PSoC5/cyfitter_cfg.c **** }
 105              		.loc 1 220 0 is_stmt 1
 106 0030 F0BC     		pop	{r4, r5, r6, r7}
 107              		.cfi_restore 7
 108              		.cfi_restore 6
 109              		.cfi_restore 5
 110              		.cfi_restore 4
 111              		.cfi_def_cfa_offset 0
 112              	.LVL11:
 113 0032 7047     		bx	lr
 114              		.cfi_endproc
 115              	.LFE4:
 116              		.size	cfg_write_bytes32, .-cfg_write_bytes32
 117              		.section	.text.AnalogSetDefault,"ax",%progbits
 118              		.align	2
 119              		.thumb
ARM GAS  C:\Users\SWAPNIL\AppData\Local\Temp\ccz0uBy2.s 			page 7


 120              		.thumb_func
 121              		.type	AnalogSetDefault, %function
 122              	AnalogSetDefault:
 123              	.LFB6:
 221:Generated_Source\PSoC5/cyfitter_cfg.c **** 
 222:Generated_Source\PSoC5/cyfitter_cfg.c **** /*******************************************************************************
 223:Generated_Source\PSoC5/cyfitter_cfg.c **** * Function Name: ClockSetup
 224:Generated_Source\PSoC5/cyfitter_cfg.c **** ********************************************************************************
 225:Generated_Source\PSoC5/cyfitter_cfg.c **** *
 226:Generated_Source\PSoC5/cyfitter_cfg.c **** * Summary:
 227:Generated_Source\PSoC5/cyfitter_cfg.c **** *  Performs the initialization of all of the clocks in the device based on the
 228:Generated_Source\PSoC5/cyfitter_cfg.c **** *  settings in the Clock tab of the DWR.  This includes enabling the requested
 229:Generated_Source\PSoC5/cyfitter_cfg.c **** *  clocks and setting the necessary dividers to produce the desired frequency. 
 230:Generated_Source\PSoC5/cyfitter_cfg.c **** *
 231:Generated_Source\PSoC5/cyfitter_cfg.c **** * Parameters:
 232:Generated_Source\PSoC5/cyfitter_cfg.c **** *  void
 233:Generated_Source\PSoC5/cyfitter_cfg.c **** *
 234:Generated_Source\PSoC5/cyfitter_cfg.c **** * Return:
 235:Generated_Source\PSoC5/cyfitter_cfg.c **** *  void
 236:Generated_Source\PSoC5/cyfitter_cfg.c **** *
 237:Generated_Source\PSoC5/cyfitter_cfg.c **** *******************************************************************************/
 238:Generated_Source\PSoC5/cyfitter_cfg.c **** static void ClockSetup(void);
 239:Generated_Source\PSoC5/cyfitter_cfg.c **** static void ClockSetup(void)
 240:Generated_Source\PSoC5/cyfitter_cfg.c **** {
 241:Generated_Source\PSoC5/cyfitter_cfg.c **** 	uint32 timeout;
 242:Generated_Source\PSoC5/cyfitter_cfg.c **** 	uint8 pllLock;
 243:Generated_Source\PSoC5/cyfitter_cfg.c **** 
 244:Generated_Source\PSoC5/cyfitter_cfg.c **** 
 245:Generated_Source\PSoC5/cyfitter_cfg.c **** 	/* Configure Digital Clocks based on settings from Clock DWR */
 246:Generated_Source\PSoC5/cyfitter_cfg.c **** 	CY_SET_XTND_REG16((void CYFAR *)(CYREG_CLKDIST_DCFG0_CFG0), 0x0000u);
 247:Generated_Source\PSoC5/cyfitter_cfg.c **** 	CY_SET_XTND_REG8((void CYFAR *)(CYREG_CLKDIST_DCFG0_CFG0 + 0x2u), 0x50u);
 248:Generated_Source\PSoC5/cyfitter_cfg.c **** 	CY_SET_XTND_REG16((void CYFAR *)(CYREG_CLKDIST_DCFG1_CFG0), 0x0019u);
 249:Generated_Source\PSoC5/cyfitter_cfg.c **** 	CY_SET_XTND_REG8((void CYFAR *)(CYREG_CLKDIST_DCFG1_CFG0 + 0x2u), 0x18u);
 250:Generated_Source\PSoC5/cyfitter_cfg.c **** 
 251:Generated_Source\PSoC5/cyfitter_cfg.c **** 	/* Configure Analog Clocks based on settings from Clock DWR */
 252:Generated_Source\PSoC5/cyfitter_cfg.c **** 	CYCONFIGCPY((void CYFAR *)(CYREG_CLKDIST_ACFG0_CFG0), (const void CYFAR *)(BS_CYDEV_CLKDIST_ACFG0_
 253:Generated_Source\PSoC5/cyfitter_cfg.c **** 
 254:Generated_Source\PSoC5/cyfitter_cfg.c **** 	/* Configure ILO based on settings from Clock DWR */
 255:Generated_Source\PSoC5/cyfitter_cfg.c **** 	CY_SET_XTND_REG8((void CYFAR *)(CYREG_SLOWCLK_ILO_CR0), 0x06u);
 256:Generated_Source\PSoC5/cyfitter_cfg.c **** 
 257:Generated_Source\PSoC5/cyfitter_cfg.c **** 	/* Configure IMO based on settings from Clock DWR */
 258:Generated_Source\PSoC5/cyfitter_cfg.c **** 	CY_SET_XTND_REG8((void CYFAR *)(CYREG_FASTCLK_IMO_CR), 0x52u);
 259:Generated_Source\PSoC5/cyfitter_cfg.c **** 	CY_SET_XTND_REG8((void CYFAR *)(CYREG_IMO_TR1), (CY_GET_XTND_REG8((void CYFAR *)CYREG_FLSHID_CUST_
 260:Generated_Source\PSoC5/cyfitter_cfg.c **** 
 261:Generated_Source\PSoC5/cyfitter_cfg.c **** 	/* Configure PLL based on settings from Clock DWR */
 262:Generated_Source\PSoC5/cyfitter_cfg.c **** 	CY_SET_XTND_REG16((void CYFAR *)(CYREG_FASTCLK_PLL_P), 0x0708u);
 263:Generated_Source\PSoC5/cyfitter_cfg.c **** 	CY_SET_XTND_REG16((void CYFAR *)(CYREG_FASTCLK_PLL_CFG0), 0x1251u);
 264:Generated_Source\PSoC5/cyfitter_cfg.c **** 	/* Wait up to 250us for the PLL to lock */
 265:Generated_Source\PSoC5/cyfitter_cfg.c **** 	pllLock = 0u;
 266:Generated_Source\PSoC5/cyfitter_cfg.c **** 	for (timeout = 250u / 10u; (timeout > 0u) && (pllLock != 0x03u); timeout--)
 267:Generated_Source\PSoC5/cyfitter_cfg.c **** 	{ 
 268:Generated_Source\PSoC5/cyfitter_cfg.c **** 		pllLock = 0x03u & ((uint8)((uint8)pllLock << 1) | ((CY_GET_XTND_REG8((void CYFAR *)CYREG_FASTCLK_
 269:Generated_Source\PSoC5/cyfitter_cfg.c **** 		CyDelayCycles(10u * 48u); /* Delay 10us based on 48MHz clock */
 270:Generated_Source\PSoC5/cyfitter_cfg.c **** 	}
 271:Generated_Source\PSoC5/cyfitter_cfg.c **** 	/* If we ran out of time the PLL didn't lock so go to the error function */
 272:Generated_Source\PSoC5/cyfitter_cfg.c **** 	if (timeout == 0u)
 273:Generated_Source\PSoC5/cyfitter_cfg.c **** 	{
ARM GAS  C:\Users\SWAPNIL\AppData\Local\Temp\ccz0uBy2.s 			page 8


 274:Generated_Source\PSoC5/cyfitter_cfg.c **** 		CyClockStartupError(CYCLOCKSTART_PLL_ERROR);
 275:Generated_Source\PSoC5/cyfitter_cfg.c **** 	}
 276:Generated_Source\PSoC5/cyfitter_cfg.c **** 
 277:Generated_Source\PSoC5/cyfitter_cfg.c **** 	/* Configure Bus/Master Clock based on settings from Clock DWR */
 278:Generated_Source\PSoC5/cyfitter_cfg.c **** 	CY_SET_XTND_REG16((void CYFAR *)(CYREG_CLKDIST_MSTR0), 0x0100u);
 279:Generated_Source\PSoC5/cyfitter_cfg.c **** 	CY_SET_XTND_REG8((void CYFAR *)(CYREG_CLKDIST_MSTR0), 0x07u);
 280:Generated_Source\PSoC5/cyfitter_cfg.c **** 	CY_SET_XTND_REG8((void CYFAR *)(CYREG_CLKDIST_BCFG0), 0x00u);
 281:Generated_Source\PSoC5/cyfitter_cfg.c **** 	CY_SET_XTND_REG8((void CYFAR *)(CYREG_CLKDIST_BCFG2), 0x48u);
 282:Generated_Source\PSoC5/cyfitter_cfg.c **** 	CY_SET_XTND_REG8((void CYFAR *)(CYREG_CLKDIST_MSTR0), 0x00u);
 283:Generated_Source\PSoC5/cyfitter_cfg.c **** 
 284:Generated_Source\PSoC5/cyfitter_cfg.c **** 	/* Configure USB Clock based on settings from Clock DWR */
 285:Generated_Source\PSoC5/cyfitter_cfg.c **** 	CY_SET_XTND_REG8((void CYFAR *)(CYREG_CLKDIST_UCFG), 0x00u);
 286:Generated_Source\PSoC5/cyfitter_cfg.c **** 	CY_SET_XTND_REG8((void CYFAR *)(CYREG_CLKDIST_LD), 0x02u);
 287:Generated_Source\PSoC5/cyfitter_cfg.c **** 	CY_SET_XTND_REG8((void CYFAR *)(CYREG_CLKDIST_DLY1), 0x04u);
 288:Generated_Source\PSoC5/cyfitter_cfg.c **** 
 289:Generated_Source\PSoC5/cyfitter_cfg.c **** 	CY_SET_XTND_REG8((void CYFAR *)(CYREG_PM_ACT_CFG2), ((CY_GET_XTND_REG8((void CYFAR *)CYREG_PM_ACT_
 290:Generated_Source\PSoC5/cyfitter_cfg.c **** 	CY_SET_XTND_REG8((void CYFAR *)(CYREG_PM_ACT_CFG1), ((CY_GET_XTND_REG8((void CYFAR *)CYREG_PM_ACT_
 291:Generated_Source\PSoC5/cyfitter_cfg.c **** 	CY_SET_XTND_REG8((void CYFAR *)(CYREG_PM_ACT_CFG0), ((CY_GET_XTND_REG8((void CYFAR *)CYREG_PM_ACT_
 292:Generated_Source\PSoC5/cyfitter_cfg.c **** }
 293:Generated_Source\PSoC5/cyfitter_cfg.c **** 
 294:Generated_Source\PSoC5/cyfitter_cfg.c **** 
 295:Generated_Source\PSoC5/cyfitter_cfg.c **** /* Analog API Functions */
 296:Generated_Source\PSoC5/cyfitter_cfg.c **** 
 297:Generated_Source\PSoC5/cyfitter_cfg.c **** 
 298:Generated_Source\PSoC5/cyfitter_cfg.c **** /*******************************************************************************
 299:Generated_Source\PSoC5/cyfitter_cfg.c **** * Function Name: AnalogSetDefault
 300:Generated_Source\PSoC5/cyfitter_cfg.c **** ********************************************************************************
 301:Generated_Source\PSoC5/cyfitter_cfg.c **** *
 302:Generated_Source\PSoC5/cyfitter_cfg.c **** * Summary:
 303:Generated_Source\PSoC5/cyfitter_cfg.c **** *  Sets up the analog portions of the chip to default values based on chip
 304:Generated_Source\PSoC5/cyfitter_cfg.c **** *  configuration options from the project.
 305:Generated_Source\PSoC5/cyfitter_cfg.c **** *
 306:Generated_Source\PSoC5/cyfitter_cfg.c **** * Parameters:
 307:Generated_Source\PSoC5/cyfitter_cfg.c **** *  void
 308:Generated_Source\PSoC5/cyfitter_cfg.c **** *
 309:Generated_Source\PSoC5/cyfitter_cfg.c **** * Return:
 310:Generated_Source\PSoC5/cyfitter_cfg.c **** *  void
 311:Generated_Source\PSoC5/cyfitter_cfg.c **** *
 312:Generated_Source\PSoC5/cyfitter_cfg.c **** *******************************************************************************/
 313:Generated_Source\PSoC5/cyfitter_cfg.c **** static void AnalogSetDefault(void);
 314:Generated_Source\PSoC5/cyfitter_cfg.c **** static void AnalogSetDefault(void)
 315:Generated_Source\PSoC5/cyfitter_cfg.c **** {
 124              		.loc 1 315 0
 125              		.cfi_startproc
 126              		@ args = 0, pretend = 0, frame = 0
 127              		@ frame_needed = 0, uses_anonymous_args = 0
 128              		@ link register save eliminated.
 316:Generated_Source\PSoC5/cyfitter_cfg.c **** 	uint8 bg_xover_inl_trim = CY_GET_XTND_REG8((void CYFAR *)(CYREG_FLSHID_MFG_CFG_BG_XOVER_INL_TRIM +
 129              		.loc 1 316 0
 130 0000 134B     		ldr	r3, .L10
 131 0002 1B78     		ldrb	r3, [r3]	@ zero_extendqisi2
 132 0004 DBB2     		uxtb	r3, r3
 133              	.LVL12:
 317:Generated_Source\PSoC5/cyfitter_cfg.c **** 	CY_SET_XTND_REG8((void CYFAR *)(CYREG_BG_DFT0), (bg_xover_inl_trim & 0x07u));
 134              		.loc 1 317 0
 135 0006 03F00701 		and	r1, r3, #7
 136 000a 124A     		ldr	r2, .L10+4
ARM GAS  C:\Users\SWAPNIL\AppData\Local\Temp\ccz0uBy2.s 			page 9


 137 000c 1170     		strb	r1, [r2]
 318:Generated_Source\PSoC5/cyfitter_cfg.c **** 	CY_SET_XTND_REG8((void CYFAR *)(CYREG_BG_DFT1), ((bg_xover_inl_trim >> 4) & 0x0Fu));
 138              		.loc 1 318 0
 139 000e 1B09     		lsrs	r3, r3, #4
 140              	.LVL13:
 141 0010 0132     		adds	r2, r2, #1
 142 0012 1370     		strb	r3, [r2]
 319:Generated_Source\PSoC5/cyfitter_cfg.c **** 	CY_SET_XTND_REG8((void CYFAR *)CYREG_PRT0_AG, 0x83u);
 143              		.loc 1 319 0
 144 0014 8322     		movs	r2, #131
 145 0016 104B     		ldr	r3, .L10+8
 146 0018 1A70     		strb	r2, [r3]
 320:Generated_Source\PSoC5/cyfitter_cfg.c **** 	CY_SET_XTND_REG8((void CYFAR *)CYREG_SC2_SW0, 0x10u);
 147              		.loc 1 320 0
 148 001a 1022     		movs	r2, #16
 149 001c 03F61313 		addw	r3, r3, #2323
 150 0020 1A70     		strb	r2, [r3]
 321:Generated_Source\PSoC5/cyfitter_cfg.c **** 	CY_SET_XTND_REG8((void CYFAR *)CYREG_SC2_SW4, 0x20u);
 151              		.loc 1 321 0
 152 0022 2021     		movs	r1, #32
 153 0024 0433     		adds	r3, r3, #4
 154 0026 1970     		strb	r1, [r3]
 322:Generated_Source\PSoC5/cyfitter_cfg.c **** 	CY_SET_XTND_REG8((void CYFAR *)CYREG_SC2_SW8, 0x40u);
 155              		.loc 1 322 0
 156 0028 4023     		movs	r3, #64
 157 002a 0C49     		ldr	r1, .L10+12
 158 002c 0B70     		strb	r3, [r1]
 323:Generated_Source\PSoC5/cyfitter_cfg.c **** 	CY_SET_XTND_REG8((void CYFAR *)CYREG_DAC3_SW0, 0x10u);
 159              		.loc 1 323 0
 160 002e 7031     		adds	r1, r1, #112
 161 0030 0A70     		strb	r2, [r1]
 324:Generated_Source\PSoC5/cyfitter_cfg.c **** 	CY_SET_XTND_REG8((void CYFAR *)CYREG_DSM0_SW0, 0x40u);
 162              		.loc 1 324 0
 163 0032 0B4A     		ldr	r2, .L10+16
 164 0034 1370     		strb	r3, [r2]
 325:Generated_Source\PSoC5/cyfitter_cfg.c **** 	CY_SET_XTND_REG8((void CYFAR *)CYREG_DSM0_SW4, 0x80u);
 165              		.loc 1 325 0
 166 0036 8022     		movs	r2, #128
 167 0038 0A4B     		ldr	r3, .L10+20
 168 003a 1A70     		strb	r2, [r3]
 326:Generated_Source\PSoC5/cyfitter_cfg.c **** 	CY_SET_XTND_REG16((void CYFAR *)CYREG_OPAMP3_MX, 0x0101u);
 169              		.loc 1 326 0
 170 003c 40F20112 		movw	r2, #257
 171 0040 4233     		adds	r3, r3, #66
 172 0042 1A80     		strh	r2, [r3]	@ movhi
 327:Generated_Source\PSoC5/cyfitter_cfg.c **** 	CY_SET_XTND_REG8((void CYFAR *)CYREG_PUMP_CR0, 0x44u);
 173              		.loc 1 327 0
 174 0044 4422     		movs	r2, #68
 175 0046 A3F53473 		sub	r3, r3, #720
 176 004a 1A70     		strb	r2, [r3]
 177 004c 7047     		bx	lr
 178              	.L11:
 179 004e 00BF     		.align	2
 180              	.L10:
 181 0050 CF010049 		.word	1224737231
 182 0054 6E580040 		.word	1073764462
 183 0058 0D510040 		.word	1073762573
ARM GAS  C:\Users\SWAPNIL\AppData\Local\Temp\ccz0uBy2.s 			page 10


 184 005c 285A0040 		.word	1073764904
 185 0060 005B0040 		.word	1073765120
 186 0064 045B0040 		.word	1073765124
 187              		.cfi_endproc
 188              	.LFE6:
 189              		.size	AnalogSetDefault, .-AnalogSetDefault
 190              		.section	.text.CYMEMZERO,"ax",%progbits
 191              		.align	2
 192              		.thumb
 193              		.thumb_func
 194              		.type	CYMEMZERO, %function
 195              	CYMEMZERO:
 196              	.LFB0:
  78:Generated_Source\PSoC5/cyfitter_cfg.c **** 	(void)memset(s, 0, n);
 197              		.loc 1 78 0
 198              		.cfi_startproc
 199              		@ args = 0, pretend = 0, frame = 0
 200              		@ frame_needed = 0, uses_anonymous_args = 0
 201              	.LVL14:
 202 0000 08B5     		push	{r3, lr}
 203              		.cfi_def_cfa_offset 8
 204              		.cfi_offset 3, -8
 205              		.cfi_offset 14, -4
  79:Generated_Source\PSoC5/cyfitter_cfg.c **** }
 206              		.loc 1 79 0
 207 0002 0A46     		mov	r2, r1
 208 0004 0021     		movs	r1, #0
 209              	.LVL15:
 210 0006 FFF7FEFF 		bl	memset
 211              	.LVL16:
 212 000a 08BD     		pop	{r3, pc}
 213              		.cfi_endproc
 214              	.LFE0:
 215              		.size	CYMEMZERO, .-CYMEMZERO
 216              		.section	.text.CYCONFIGCPY,"ax",%progbits
 217              		.align	2
 218              		.thumb
 219              		.thumb_func
 220              		.type	CYCONFIGCPY, %function
 221              	CYCONFIGCPY:
 222              	.LFB1:
  85:Generated_Source\PSoC5/cyfitter_cfg.c **** 	(void)memcpy(dest, src, n);
 223              		.loc 1 85 0
 224              		.cfi_startproc
 225              		@ args = 0, pretend = 0, frame = 0
 226              		@ frame_needed = 0, uses_anonymous_args = 0
 227              	.LVL17:
 228 0000 08B5     		push	{r3, lr}
 229              		.cfi_def_cfa_offset 8
 230              		.cfi_offset 3, -8
 231              		.cfi_offset 14, -4
  86:Generated_Source\PSoC5/cyfitter_cfg.c **** }
 232              		.loc 1 86 0
 233 0002 FFF7FEFF 		bl	memcpy
 234              	.LVL18:
 235 0006 08BD     		pop	{r3, pc}
 236              		.cfi_endproc
ARM GAS  C:\Users\SWAPNIL\AppData\Local\Temp\ccz0uBy2.s 			page 11


 237              	.LFE1:
 238              		.size	CYCONFIGCPY, .-CYCONFIGCPY
 239              		.section	.text.ClockSetup,"ax",%progbits
 240              		.align	2
 241              		.thumb
 242              		.thumb_func
 243              		.type	ClockSetup, %function
 244              	ClockSetup:
 245              	.LFB5:
 240:Generated_Source\PSoC5/cyfitter_cfg.c **** 	uint32 timeout;
 246              		.loc 1 240 0
 247              		.cfi_startproc
 248              		@ args = 0, pretend = 0, frame = 0
 249              		@ frame_needed = 0, uses_anonymous_args = 0
 250 0000 38B5     		push	{r3, r4, r5, lr}
 251              		.cfi_def_cfa_offset 16
 252              		.cfi_offset 3, -16
 253              		.cfi_offset 4, -12
 254              		.cfi_offset 5, -8
 255              		.cfi_offset 14, -4
 246:Generated_Source\PSoC5/cyfitter_cfg.c **** 	CY_SET_XTND_REG8((void CYFAR *)(CYREG_CLKDIST_DCFG0_CFG0 + 0x2u), 0x50u);
 256              		.loc 1 246 0
 257 0002 0024     		movs	r4, #0
 258 0004 2E4B     		ldr	r3, .L22
 259 0006 1C80     		strh	r4, [r3]	@ movhi
 247:Generated_Source\PSoC5/cyfitter_cfg.c **** 	CY_SET_XTND_REG16((void CYFAR *)(CYREG_CLKDIST_DCFG1_CFG0), 0x0019u);
 260              		.loc 1 247 0
 261 0008 5022     		movs	r2, #80
 262 000a 0233     		adds	r3, r3, #2
 263 000c 1A70     		strb	r2, [r3]
 248:Generated_Source\PSoC5/cyfitter_cfg.c **** 	CY_SET_XTND_REG8((void CYFAR *)(CYREG_CLKDIST_DCFG1_CFG0 + 0x2u), 0x18u);
 264              		.loc 1 248 0
 265 000e 1925     		movs	r5, #25
 266 0010 0233     		adds	r3, r3, #2
 267 0012 1D80     		strh	r5, [r3]	@ movhi
 249:Generated_Source\PSoC5/cyfitter_cfg.c **** 
 268              		.loc 1 249 0
 269 0014 1822     		movs	r2, #24
 270 0016 0233     		adds	r3, r3, #2
 271 0018 1A70     		strb	r2, [r3]
 252:Generated_Source\PSoC5/cyfitter_cfg.c **** 
 272              		.loc 1 252 0
 273 001a 0422     		movs	r2, #4
 274 001c 2949     		ldr	r1, .L22+4
 275 001e 2A48     		ldr	r0, .L22+8
 276 0020 FFF7FEFF 		bl	CYCONFIGCPY
 277              	.LVL19:
 255:Generated_Source\PSoC5/cyfitter_cfg.c **** 
 278              		.loc 1 255 0
 279 0024 0622     		movs	r2, #6
 280 0026 294B     		ldr	r3, .L22+12
 281 0028 1A70     		strb	r2, [r3]
 258:Generated_Source\PSoC5/cyfitter_cfg.c **** 	CY_SET_XTND_REG8((void CYFAR *)(CYREG_IMO_TR1), (CY_GET_XTND_REG8((void CYFAR *)CYREG_FLSHID_CUST_
 282              		.loc 1 258 0
 283 002a 5222     		movs	r2, #82
 284 002c A3F58073 		sub	r3, r3, #256
 285 0030 1A70     		strb	r2, [r3]
ARM GAS  C:\Users\SWAPNIL\AppData\Local\Temp\ccz0uBy2.s 			page 12


 259:Generated_Source\PSoC5/cyfitter_cfg.c **** 
 286              		.loc 1 259 0
 287 0032 274B     		ldr	r3, .L22+16
 288 0034 1B78     		ldrb	r3, [r3]	@ zero_extendqisi2
 289 0036 DBB2     		uxtb	r3, r3
 290 0038 264A     		ldr	r2, .L22+20
 291 003a 1370     		strb	r3, [r2]
 262:Generated_Source\PSoC5/cyfitter_cfg.c **** 	CY_SET_XTND_REG16((void CYFAR *)(CYREG_FASTCLK_PLL_CFG0), 0x1251u);
 292              		.loc 1 262 0
 293 003c 4FF4E162 		mov	r2, #1800
 294 0040 254B     		ldr	r3, .L22+24
 295 0042 1A80     		strh	r2, [r3]	@ movhi
 263:Generated_Source\PSoC5/cyfitter_cfg.c **** 	/* Wait up to 250us for the PLL to lock */
 296              		.loc 1 263 0
 297 0044 41F25122 		movw	r2, #4689
 298 0048 023B     		subs	r3, r3, #2
 299 004a 1A80     		strh	r2, [r3]	@ movhi
 300              	.LVL20:
 266:Generated_Source\PSoC5/cyfitter_cfg.c **** 	{ 
 301              		.loc 1 266 0
 302 004c 0CE0     		b	.L17
 303              	.LVL21:
 304              	.L19:
 268:Generated_Source\PSoC5/cyfitter_cfg.c **** 		CyDelayCycles(10u * 48u); /* Delay 10us based on 48MHz clock */
 305              		.loc 1 268 0 discriminator 4
 306 004e 234B     		ldr	r3, .L22+28
 307 0050 1B78     		ldrb	r3, [r3]	@ zero_extendqisi2
 308 0052 03F00103 		and	r3, r3, #1
 309 0056 43EA4404 		orr	r4, r3, r4, lsl #1
 310              	.LVL22:
 311 005a 04F00304 		and	r4, r4, #3
 312              	.LVL23:
 269:Generated_Source\PSoC5/cyfitter_cfg.c **** 	}
 313              		.loc 1 269 0 discriminator 4
 314 005e 4FF4F070 		mov	r0, #480
 315 0062 FFF7FEFF 		bl	CyDelayCycles
 316              	.LVL24:
 266:Generated_Source\PSoC5/cyfitter_cfg.c **** 	{ 
 317              		.loc 1 266 0 discriminator 4
 318 0066 013D     		subs	r5, r5, #1
 319              	.LVL25:
 320              	.L17:
 266:Generated_Source\PSoC5/cyfitter_cfg.c **** 	{ 
 321              		.loc 1 266 0 is_stmt 0 discriminator 1
 322 0068 0DB1     		cbz	r5, .L18
 266:Generated_Source\PSoC5/cyfitter_cfg.c **** 	{ 
 323              		.loc 1 266 0 discriminator 3
 324 006a 032C     		cmp	r4, #3
 325 006c EFD1     		bne	.L19
 326              	.L18:
 272:Generated_Source\PSoC5/cyfitter_cfg.c **** 	{
 327              		.loc 1 272 0 is_stmt 1
 328 006e 15B9     		cbnz	r5, .L20
 274:Generated_Source\PSoC5/cyfitter_cfg.c **** 	}
 329              		.loc 1 274 0
 330 0070 0320     		movs	r0, #3
 331 0072 FFF7FEFF 		bl	CyClockStartupError
ARM GAS  C:\Users\SWAPNIL\AppData\Local\Temp\ccz0uBy2.s 			page 13


 332              	.LVL26:
 333              	.L20:
 278:Generated_Source\PSoC5/cyfitter_cfg.c **** 	CY_SET_XTND_REG8((void CYFAR *)(CYREG_CLKDIST_MSTR0), 0x07u);
 334              		.loc 1 278 0
 335 0076 1A4A     		ldr	r2, .L22+32
 336 0078 4FF48073 		mov	r3, #256
 337 007c 1380     		strh	r3, [r2]	@ movhi
 279:Generated_Source\PSoC5/cyfitter_cfg.c **** 	CY_SET_XTND_REG8((void CYFAR *)(CYREG_CLKDIST_BCFG0), 0x00u);
 338              		.loc 1 279 0
 339 007e 0723     		movs	r3, #7
 340 0080 1370     		strb	r3, [r2]
 280:Generated_Source\PSoC5/cyfitter_cfg.c **** 	CY_SET_XTND_REG8((void CYFAR *)(CYREG_CLKDIST_BCFG2), 0x48u);
 341              		.loc 1 280 0
 342 0082 0023     		movs	r3, #0
 343 0084 1749     		ldr	r1, .L22+36
 344 0086 0B70     		strb	r3, [r1]
 281:Generated_Source\PSoC5/cyfitter_cfg.c **** 	CY_SET_XTND_REG8((void CYFAR *)(CYREG_CLKDIST_MSTR0), 0x00u);
 345              		.loc 1 281 0
 346 0088 4820     		movs	r0, #72
 347 008a 0231     		adds	r1, r1, #2
 348 008c 0870     		strb	r0, [r1]
 282:Generated_Source\PSoC5/cyfitter_cfg.c **** 
 349              		.loc 1 282 0
 350 008e 1370     		strb	r3, [r2]
 285:Generated_Source\PSoC5/cyfitter_cfg.c **** 	CY_SET_XTND_REG8((void CYFAR *)(CYREG_CLKDIST_LD), 0x02u);
 351              		.loc 1 285 0
 352 0090 0532     		adds	r2, r2, #5
 353 0092 1370     		strb	r3, [r2]
 286:Generated_Source\PSoC5/cyfitter_cfg.c **** 	CY_SET_XTND_REG8((void CYFAR *)(CYREG_CLKDIST_DLY1), 0x04u);
 354              		.loc 1 286 0
 355 0094 0222     		movs	r2, #2
 356 0096 144B     		ldr	r3, .L22+40
 357 0098 1A70     		strb	r2, [r3]
 287:Generated_Source\PSoC5/cyfitter_cfg.c **** 
 358              		.loc 1 287 0
 359 009a 0422     		movs	r2, #4
 360 009c 0A33     		adds	r3, r3, #10
 361 009e 1A70     		strb	r2, [r3]
 289:Generated_Source\PSoC5/cyfitter_cfg.c **** 	CY_SET_XTND_REG8((void CYFAR *)(CYREG_PM_ACT_CFG1), ((CY_GET_XTND_REG8((void CYFAR *)CYREG_PM_ACT_
 362              		.loc 1 289 0
 363 00a0 124A     		ldr	r2, .L22+44
 364 00a2 1378     		ldrb	r3, [r2]	@ zero_extendqisi2
 365 00a4 43F00303 		orr	r3, r3, #3
 366 00a8 1370     		strb	r3, [r2]
 290:Generated_Source\PSoC5/cyfitter_cfg.c **** 	CY_SET_XTND_REG8((void CYFAR *)(CYREG_PM_ACT_CFG0), ((CY_GET_XTND_REG8((void CYFAR *)CYREG_PM_ACT_
 367              		.loc 1 290 0
 368 00aa 013A     		subs	r2, r2, #1
 369 00ac 1378     		ldrb	r3, [r2]	@ zero_extendqisi2
 370 00ae 43F00103 		orr	r3, r3, #1
 371 00b2 1370     		strb	r3, [r2]
 291:Generated_Source\PSoC5/cyfitter_cfg.c **** }
 372              		.loc 1 291 0
 373 00b4 013A     		subs	r2, r2, #1
 374 00b6 1378     		ldrb	r3, [r2]	@ zero_extendqisi2
 375 00b8 43F08003 		orr	r3, r3, #128
 376 00bc 1370     		strb	r3, [r2]
 377 00be 38BD     		pop	{r3, r4, r5, pc}
ARM GAS  C:\Users\SWAPNIL\AppData\Local\Temp\ccz0uBy2.s 			page 14


 378              	.LVL27:
 379              	.L23:
 380              		.align	2
 381              	.L22:
 382 00c0 80400040 		.word	1073758336
 383 00c4 9C040048 		.word	1207960732
 384 00c8 00410040 		.word	1073758464
 385 00cc 00430040 		.word	1073758976
 386 00d0 0F010049 		.word	1224737039
 387 00d4 A1460040 		.word	1073759905
 388 00d8 22420040 		.word	1073758754
 389 00dc 25420040 		.word	1073758757
 390 00e0 04400040 		.word	1073758212
 391 00e4 06400040 		.word	1073758214
 392 00e8 01400040 		.word	1073758209
 393 00ec A2430040 		.word	1073759138
 394              		.cfi_endproc
 395              	.LFE5:
 396              		.size	ClockSetup, .-ClockSetup
 397              		.section	.text.SetAnalogRoutingPumps,"ax",%progbits
 398              		.align	2
 399              		.global	SetAnalogRoutingPumps
 400              		.thumb
 401              		.thumb_func
 402              		.type	SetAnalogRoutingPumps, %function
 403              	SetAnalogRoutingPumps:
 404              	.LFB7:
 328:Generated_Source\PSoC5/cyfitter_cfg.c **** }
 329:Generated_Source\PSoC5/cyfitter_cfg.c **** 
 330:Generated_Source\PSoC5/cyfitter_cfg.c **** 
 331:Generated_Source\PSoC5/cyfitter_cfg.c **** /*******************************************************************************
 332:Generated_Source\PSoC5/cyfitter_cfg.c **** * Function Name: SetAnalogRoutingPumps
 333:Generated_Source\PSoC5/cyfitter_cfg.c **** ********************************************************************************
 334:Generated_Source\PSoC5/cyfitter_cfg.c **** *
 335:Generated_Source\PSoC5/cyfitter_cfg.c **** * Summary:
 336:Generated_Source\PSoC5/cyfitter_cfg.c **** * Enables or disables the analog pumps feeding analog routing switches.
 337:Generated_Source\PSoC5/cyfitter_cfg.c **** * Intended to be called at startup, based on the Vdda system configuration;
 338:Generated_Source\PSoC5/cyfitter_cfg.c **** * may be called during operation when the user informs us that the Vdda voltage
 339:Generated_Source\PSoC5/cyfitter_cfg.c **** * crossed the pump threshold.
 340:Generated_Source\PSoC5/cyfitter_cfg.c **** *
 341:Generated_Source\PSoC5/cyfitter_cfg.c **** * Parameters:
 342:Generated_Source\PSoC5/cyfitter_cfg.c **** *  enabled - 1 to enable the pumps, 0 to disable the pumps
 343:Generated_Source\PSoC5/cyfitter_cfg.c **** *
 344:Generated_Source\PSoC5/cyfitter_cfg.c **** * Return:
 345:Generated_Source\PSoC5/cyfitter_cfg.c **** *  void
 346:Generated_Source\PSoC5/cyfitter_cfg.c **** *
 347:Generated_Source\PSoC5/cyfitter_cfg.c **** *******************************************************************************/
 348:Generated_Source\PSoC5/cyfitter_cfg.c **** void SetAnalogRoutingPumps(uint8 enabled)
 349:Generated_Source\PSoC5/cyfitter_cfg.c **** {
 405              		.loc 1 349 0
 406              		.cfi_startproc
 407              		@ args = 0, pretend = 0, frame = 0
 408              		@ frame_needed = 0, uses_anonymous_args = 0
 409              		@ link register save eliminated.
 410              	.LVL28:
 350:Generated_Source\PSoC5/cyfitter_cfg.c **** 	uint8 regValue = CY_GET_XTND_REG8((void CYFAR *)CYREG_PUMP_CR0);
 411              		.loc 1 350 0
ARM GAS  C:\Users\SWAPNIL\AppData\Local\Temp\ccz0uBy2.s 			page 15


 412 0000 054B     		ldr	r3, .L27
 413 0002 1B78     		ldrb	r3, [r3]	@ zero_extendqisi2
 414 0004 DBB2     		uxtb	r3, r3
 415              	.LVL29:
 351:Generated_Source\PSoC5/cyfitter_cfg.c **** 	if (enabled != 0u)
 416              		.loc 1 351 0
 417 0006 10B1     		cbz	r0, .L25
 352:Generated_Source\PSoC5/cyfitter_cfg.c **** 	{
 353:Generated_Source\PSoC5/cyfitter_cfg.c **** 		regValue |= 0x22u;
 418              		.loc 1 353 0
 419 0008 43F02203 		orr	r3, r3, #34
 420              	.LVL30:
 421 000c 01E0     		b	.L26
 422              	.L25:
 354:Generated_Source\PSoC5/cyfitter_cfg.c **** 	}
 355:Generated_Source\PSoC5/cyfitter_cfg.c **** 	else
 356:Generated_Source\PSoC5/cyfitter_cfg.c **** 	{
 357:Generated_Source\PSoC5/cyfitter_cfg.c **** 		regValue &= (uint8)~0x22u;
 423              		.loc 1 357 0
 424 000e 03F0DD03 		and	r3, r3, #221
 425              	.LVL31:
 426              	.L26:
 358:Generated_Source\PSoC5/cyfitter_cfg.c **** 	}
 359:Generated_Source\PSoC5/cyfitter_cfg.c **** 	CY_SET_XTND_REG8((void CYFAR *)CYREG_PUMP_CR0, regValue);
 427              		.loc 1 359 0
 428 0012 014A     		ldr	r2, .L27
 429 0014 1370     		strb	r3, [r2]
 430 0016 7047     		bx	lr
 431              	.L28:
 432              		.align	2
 433              	.L27:
 434 0018 76580040 		.word	1073764470
 435              		.cfi_endproc
 436              	.LFE7:
 437              		.size	SetAnalogRoutingPumps, .-SetAnalogRoutingPumps
 438              		.section	.text.cyfitter_cfg,"ax",%progbits
 439              		.align	2
 440              		.global	cyfitter_cfg
 441              		.thumb
 442              		.thumb_func
 443              		.type	cyfitter_cfg, %function
 444              	cyfitter_cfg:
 445              	.LFB8:
 360:Generated_Source\PSoC5/cyfitter_cfg.c **** }
 361:Generated_Source\PSoC5/cyfitter_cfg.c **** 
 362:Generated_Source\PSoC5/cyfitter_cfg.c **** 
 363:Generated_Source\PSoC5/cyfitter_cfg.c **** 
 364:Generated_Source\PSoC5/cyfitter_cfg.c **** 
 365:Generated_Source\PSoC5/cyfitter_cfg.c **** /*******************************************************************************
 366:Generated_Source\PSoC5/cyfitter_cfg.c **** * Function Name: cyfitter_cfg
 367:Generated_Source\PSoC5/cyfitter_cfg.c **** ********************************************************************************
 368:Generated_Source\PSoC5/cyfitter_cfg.c **** * Summary:
 369:Generated_Source\PSoC5/cyfitter_cfg.c **** *  This function is called by the start-up code for the selected device. It
 370:Generated_Source\PSoC5/cyfitter_cfg.c **** *  performs all of the necessary device configuration based on the design
 371:Generated_Source\PSoC5/cyfitter_cfg.c **** *  settings.  This includes settings from the Design Wide Resources (DWR) such
 372:Generated_Source\PSoC5/cyfitter_cfg.c **** *  as Clocks and Pins as well as any component configuration that is necessary.
 373:Generated_Source\PSoC5/cyfitter_cfg.c **** *
ARM GAS  C:\Users\SWAPNIL\AppData\Local\Temp\ccz0uBy2.s 			page 16


 374:Generated_Source\PSoC5/cyfitter_cfg.c **** * Parameters:
 375:Generated_Source\PSoC5/cyfitter_cfg.c **** *   void
 376:Generated_Source\PSoC5/cyfitter_cfg.c **** *
 377:Generated_Source\PSoC5/cyfitter_cfg.c **** * Return:
 378:Generated_Source\PSoC5/cyfitter_cfg.c **** *   void
 379:Generated_Source\PSoC5/cyfitter_cfg.c **** *
 380:Generated_Source\PSoC5/cyfitter_cfg.c **** *******************************************************************************/
 381:Generated_Source\PSoC5/cyfitter_cfg.c **** 
 382:Generated_Source\PSoC5/cyfitter_cfg.c **** void cyfitter_cfg(void)
 383:Generated_Source\PSoC5/cyfitter_cfg.c **** {
 446              		.loc 1 383 0
 447              		.cfi_startproc
 448              		@ args = 0, pretend = 0, frame = 0
 449              		@ frame_needed = 0, uses_anonymous_args = 0
 450 0000 38B5     		push	{r3, r4, r5, lr}
 451              		.cfi_def_cfa_offset 16
 452              		.cfi_offset 3, -16
 453              		.cfi_offset 4, -12
 454              		.cfi_offset 5, -8
 455              		.cfi_offset 14, -4
 384:Generated_Source\PSoC5/cyfitter_cfg.c **** #ifdef CYGlobalIntDisable
 385:Generated_Source\PSoC5/cyfitter_cfg.c **** 	/* Disable interrupts by default. Let user enable if/when they want. */
 386:Generated_Source\PSoC5/cyfitter_cfg.c **** 	CYGlobalIntDisable
 456              		.loc 1 386 0
 457              		.syntax unified
 458              	@ 386 "Generated_Source\PSoC5\cyfitter_cfg.c" 1
 459 0002 72B6     		CPSID   i
 460              	@ 0 "" 2
 387:Generated_Source\PSoC5/cyfitter_cfg.c **** #endif
 388:Generated_Source\PSoC5/cyfitter_cfg.c **** 
 389:Generated_Source\PSoC5/cyfitter_cfg.c **** 	/* Enable/Disable Debug functionality based on settings from System DWR */
 390:Generated_Source\PSoC5/cyfitter_cfg.c **** 	CY_SET_XTND_REG8((void CYFAR *)CYREG_MLOGIC_DEBUG, (CY_GET_XTND_REG8((void CYFAR *)CYREG_MLOGIC_DE
 461              		.loc 1 390 0
 462              		.thumb
 463              		.syntax unified
 464 0004 3D4A     		ldr	r2, .L35
 465 0006 1378     		ldrb	r3, [r2]	@ zero_extendqisi2
 466 0008 43F00403 		orr	r3, r3, #4
 467 000c 1370     		strb	r3, [r2]
 468              	.LVL32:
 469              	.LBB3:
 391:Generated_Source\PSoC5/cyfitter_cfg.c **** 
 392:Generated_Source\PSoC5/cyfitter_cfg.c **** 	{
 393:Generated_Source\PSoC5/cyfitter_cfg.c **** 
 394:Generated_Source\PSoC5/cyfitter_cfg.c **** 		CYPACKED typedef struct {
 395:Generated_Source\PSoC5/cyfitter_cfg.c **** 			void CYFAR *address;
 396:Generated_Source\PSoC5/cyfitter_cfg.c **** 			uint16 size;
 397:Generated_Source\PSoC5/cyfitter_cfg.c **** 		} CYPACKED_ATTR cfg_memset_t;
 398:Generated_Source\PSoC5/cyfitter_cfg.c **** 
 399:Generated_Source\PSoC5/cyfitter_cfg.c **** 
 400:Generated_Source\PSoC5/cyfitter_cfg.c **** 		CYPACKED typedef struct {
 401:Generated_Source\PSoC5/cyfitter_cfg.c **** 			void CYFAR *dest;
 402:Generated_Source\PSoC5/cyfitter_cfg.c **** 			const void CYFAR *src;
 403:Generated_Source\PSoC5/cyfitter_cfg.c **** 			uint16 size;
 404:Generated_Source\PSoC5/cyfitter_cfg.c **** 		} CYPACKED_ATTR cfg_memcpy_t;
 405:Generated_Source\PSoC5/cyfitter_cfg.c **** 
 406:Generated_Source\PSoC5/cyfitter_cfg.c **** 		static const cfg_memset_t CYCODE cfg_memset_list[] = {
ARM GAS  C:\Users\SWAPNIL\AppData\Local\Temp\ccz0uBy2.s 			page 17


 407:Generated_Source\PSoC5/cyfitter_cfg.c **** 			/* address, size */
 408:Generated_Source\PSoC5/cyfitter_cfg.c **** 			{(void CYFAR *)(CYREG_PRT5_DR), 32u},
 409:Generated_Source\PSoC5/cyfitter_cfg.c **** 			{(void CYFAR *)(CYDEV_UCFG_B0_P0_U0_BASE), 1024u},
 410:Generated_Source\PSoC5/cyfitter_cfg.c **** 			{(void CYFAR *)(CYDEV_UCFG_B0_P2_U1_BASE), 2944u},
 411:Generated_Source\PSoC5/cyfitter_cfg.c **** 			{(void CYFAR *)(CYDEV_UCFG_B1_P2_U0_BASE), 2048u},
 412:Generated_Source\PSoC5/cyfitter_cfg.c **** 			{(void CYFAR *)(CYDEV_UCFG_DSI0_BASE), 2560u},
 413:Generated_Source\PSoC5/cyfitter_cfg.c **** 			{(void CYFAR *)(CYDEV_UCFG_DSI12_BASE), 512u},
 414:Generated_Source\PSoC5/cyfitter_cfg.c **** 			{(void CYFAR *)(CYREG_BCTL0_MDCLK_EN), 32u},
 415:Generated_Source\PSoC5/cyfitter_cfg.c **** 		};
 416:Generated_Source\PSoC5/cyfitter_cfg.c **** 
 417:Generated_Source\PSoC5/cyfitter_cfg.c **** 		static const cfg_memcpy_t CYCODE cfg_memcpy_list [] = {
 418:Generated_Source\PSoC5/cyfitter_cfg.c **** 			/* dest, src, size */
 419:Generated_Source\PSoC5/cyfitter_cfg.c **** 			{(void CYFAR *)(CYDEV_UCFG_B0_P2_U0_BASE), BS_UDB_1_3_0_CONFIG_VAL, 128u},
 420:Generated_Source\PSoC5/cyfitter_cfg.c **** 		};
 421:Generated_Source\PSoC5/cyfitter_cfg.c **** 
 422:Generated_Source\PSoC5/cyfitter_cfg.c **** 		uint8 CYDATA i;
 423:Generated_Source\PSoC5/cyfitter_cfg.c **** 
 424:Generated_Source\PSoC5/cyfitter_cfg.c **** 		/* Zero out critical memory blocks before beginning configuration */
 425:Generated_Source\PSoC5/cyfitter_cfg.c **** 		for (i = 0u; i < (sizeof(cfg_memset_list)/sizeof(cfg_memset_list[0])); i++)
 470              		.loc 1 425 0
 471 000e 0024     		movs	r4, #0
 472 0010 0CE0     		b	.L30
 473              	.LVL33:
 474              	.L31:
 475              	.LBB4:
 426:Generated_Source\PSoC5/cyfitter_cfg.c **** 		{
 427:Generated_Source\PSoC5/cyfitter_cfg.c **** 			const cfg_memset_t CYCODE * CYDATA ms = &cfg_memset_list[i];
 428:Generated_Source\PSoC5/cyfitter_cfg.c **** 			CYMEMZERO(ms->address, (size_t)(uint32)(ms->size));
 476              		.loc 1 428 0 discriminator 3
 477 0012 3B4D     		ldr	r5, .L35+4
 478 0014 6300     		lsls	r3, r4, #1
 479 0016 1919     		adds	r1, r3, r4
 480 0018 4A00     		lsls	r2, r1, #1
 481 001a 1146     		mov	r1, r2
 482 001c 2A44     		add	r2, r2, r5
 483 001e 0846     		mov	r0, r1
 484 0020 9188     		ldrh	r1, [r2, #4]
 485 0022 2858     		ldr	r0, [r5, r0]	@ unaligned
 486 0024 FFF7FEFF 		bl	CYMEMZERO
 487              	.LVL34:
 488              	.LBE4:
 425:Generated_Source\PSoC5/cyfitter_cfg.c **** 		{
 489              		.loc 1 425 0 discriminator 3
 490 0028 0134     		adds	r4, r4, #1
 491              	.LVL35:
 492 002a E4B2     		uxtb	r4, r4
 493              	.LVL36:
 494              	.L30:
 425:Generated_Source\PSoC5/cyfitter_cfg.c **** 		{
 495              		.loc 1 425 0 is_stmt 0 discriminator 1
 496 002c 062C     		cmp	r4, #6
 497 002e F0D9     		bls	.L31
 498 0030 0024     		movs	r4, #0
 499              	.LVL37:
 500 0032 0BE0     		b	.L32
 501              	.LVL38:
 502              	.L33:
ARM GAS  C:\Users\SWAPNIL\AppData\Local\Temp\ccz0uBy2.s 			page 18


 503              	.LBB5:
 429:Generated_Source\PSoC5/cyfitter_cfg.c **** 		}
 430:Generated_Source\PSoC5/cyfitter_cfg.c **** 
 431:Generated_Source\PSoC5/cyfitter_cfg.c **** 		/* Copy device configuration data into registers */
 432:Generated_Source\PSoC5/cyfitter_cfg.c **** 		for (i = 0u; i < (sizeof(cfg_memcpy_list)/sizeof(cfg_memcpy_list[0])); i++)
 433:Generated_Source\PSoC5/cyfitter_cfg.c **** 		{
 434:Generated_Source\PSoC5/cyfitter_cfg.c **** 			const cfg_memcpy_t CYCODE * CYDATA mc = &cfg_memcpy_list[i];
 435:Generated_Source\PSoC5/cyfitter_cfg.c **** 			void * CYDATA destPtr = mc->dest;
 504              		.loc 1 435 0 is_stmt 1 discriminator 3
 505 0034 3249     		ldr	r1, .L35+4
 506 0036 A300     		lsls	r3, r4, #2
 507 0038 1819     		adds	r0, r3, r4
 508 003a 4200     		lsls	r2, r0, #1
 509 003c 8818     		adds	r0, r1, r2
 510              	.LVL39:
 436:Generated_Source\PSoC5/cyfitter_cfg.c **** 			const void * CYDATA srcPtr = mc->src;
 437:Generated_Source\PSoC5/cyfitter_cfg.c **** 			uint16 CYDATA numBytes = mc->size;
 438:Generated_Source\PSoC5/cyfitter_cfg.c **** 			CYCONFIGCPY(destPtr, srcPtr, numBytes);
 511              		.loc 1 438 0 discriminator 3
 512 003e 8022     		movs	r2, #128
 513 0040 016B     		ldr	r1, [r0, #48]	@ unaligned
 514              	.LVL40:
 515 0042 C06A     		ldr	r0, [r0, #44]	@ unaligned
 516              	.LVL41:
 517 0044 FFF7FEFF 		bl	CYCONFIGCPY
 518              	.LVL42:
 519              	.LBE5:
 432:Generated_Source\PSoC5/cyfitter_cfg.c **** 		{
 520              		.loc 1 432 0 discriminator 3
 521 0048 0134     		adds	r4, r4, #1
 522              	.LVL43:
 523 004a E4B2     		uxtb	r4, r4
 524              	.LVL44:
 525              	.L32:
 432:Generated_Source\PSoC5/cyfitter_cfg.c **** 		{
 526              		.loc 1 432 0 is_stmt 0 discriminator 1
 527 004c 002C     		cmp	r4, #0
 528 004e F1D0     		beq	.L33
 439:Generated_Source\PSoC5/cyfitter_cfg.c **** 		}
 440:Generated_Source\PSoC5/cyfitter_cfg.c **** 
 441:Generated_Source\PSoC5/cyfitter_cfg.c **** 		cfg_write_bytes32(cy_cfg_addr_table, cy_cfg_data_table);
 529              		.loc 1 441 0 is_stmt 1
 530 0050 2C49     		ldr	r1, .L35+8
 531 0052 4FF09040 		mov	r0, #1207959552
 532 0056 FFF7FEFF 		bl	cfg_write_bytes32
 533              	.LVL45:
 442:Generated_Source\PSoC5/cyfitter_cfg.c **** 
 443:Generated_Source\PSoC5/cyfitter_cfg.c **** 		/* Perform normal device configuration. Order is not critical for these items. */
 444:Generated_Source\PSoC5/cyfitter_cfg.c **** 		CY_SET_XTND_REG8((void CYFAR *)(CYREG_DSM0_CR3), 0x0Au);
 534              		.loc 1 444 0
 535 005a 0A25     		movs	r5, #10
 536 005c 2A4B     		ldr	r3, .L35+12
 537 005e 1D70     		strb	r5, [r3]
 445:Generated_Source\PSoC5/cyfitter_cfg.c **** 
 446:Generated_Source\PSoC5/cyfitter_cfg.c **** 		/* Enable digital routing */
 447:Generated_Source\PSoC5/cyfitter_cfg.c **** 		CY_SET_XTND_REG8((void CYFAR *)CYREG_BCTL0_BANK_CTL, CY_GET_XTND_REG8((void CYFAR *)CYREG_BCTL0_B
 538              		.loc 1 447 0
ARM GAS  C:\Users\SWAPNIL\AppData\Local\Temp\ccz0uBy2.s 			page 19


 539 0060 2A4A     		ldr	r2, .L35+16
 540 0062 1378     		ldrb	r3, [r2]	@ zero_extendqisi2
 541 0064 43F00203 		orr	r3, r3, #2
 542 0068 1370     		strb	r3, [r2]
 448:Generated_Source\PSoC5/cyfitter_cfg.c **** 		CY_SET_XTND_REG8((void CYFAR *)CYREG_BCTL1_BANK_CTL, CY_GET_XTND_REG8((void CYFAR *)CYREG_BCTL1_B
 543              		.loc 1 448 0
 544 006a 1032     		adds	r2, r2, #16
 545 006c 1378     		ldrb	r3, [r2]	@ zero_extendqisi2
 546 006e 43F00203 		orr	r3, r3, #2
 547 0072 1370     		strb	r3, [r2]
 449:Generated_Source\PSoC5/cyfitter_cfg.c **** 
 450:Generated_Source\PSoC5/cyfitter_cfg.c **** 		/* Enable UDB array */
 451:Generated_Source\PSoC5/cyfitter_cfg.c **** 		CY_SET_XTND_REG8((void CYFAR *)CYREG_PM_ACT_CFG0, CY_GET_XTND_REG8((void CYFAR *)CYREG_PM_ACT_CFG
 548              		.loc 1 451 0
 549 0074 264C     		ldr	r4, .L35+20
 550              	.LVL46:
 551 0076 2378     		ldrb	r3, [r4]	@ zero_extendqisi2
 552 0078 43F04003 		orr	r3, r3, #64
 553 007c 2370     		strb	r3, [r4]
 452:Generated_Source\PSoC5/cyfitter_cfg.c **** 		CY_SET_XTND_REG8((void CYFAR *)CYREG_PM_AVAIL_CR2, CY_GET_XTND_REG8((void CYFAR *)CYREG_PM_AVAIL_
 554              		.loc 1 452 0
 555 007e A2F58632 		sub	r2, r2, #68608
 556 0082 513A     		subs	r2, r2, #81
 557 0084 1378     		ldrb	r3, [r2]	@ zero_extendqisi2
 558 0086 43F01003 		orr	r3, r3, #16
 559 008a 1370     		strb	r3, [r2]
 560              	.LBE3:
 453:Generated_Source\PSoC5/cyfitter_cfg.c **** 	}
 454:Generated_Source\PSoC5/cyfitter_cfg.c **** 
 455:Generated_Source\PSoC5/cyfitter_cfg.c **** 
 456:Generated_Source\PSoC5/cyfitter_cfg.c **** 	/* Perform second pass device configuration. These items must be configured in specific order afte
 457:Generated_Source\PSoC5/cyfitter_cfg.c **** 	CYCONFIGCPY((void CYFAR *)(CYREG_PRT0_DM0), (const void CYFAR *)(BS_IOPINS0_0_VAL), 8u);
 561              		.loc 1 457 0
 562 008c 0822     		movs	r2, #8
 563 008e 2149     		ldr	r1, .L35+24
 564 0090 2148     		ldr	r0, .L35+28
 565 0092 FFF7FEFF 		bl	CYCONFIGCPY
 566              	.LVL47:
 458:Generated_Source\PSoC5/cyfitter_cfg.c **** 	CYCONFIGCPY((void CYFAR *)(CYREG_PRT12_DM0), (const void CYFAR *)(BS_IOPINS0_7_VAL), 8u);
 567              		.loc 1 458 0
 568 0096 0822     		movs	r2, #8
 569 0098 2049     		ldr	r1, .L35+32
 570 009a 2148     		ldr	r0, .L35+36
 571 009c FFF7FEFF 		bl	CYCONFIGCPY
 572              	.LVL48:
 459:Generated_Source\PSoC5/cyfitter_cfg.c **** 	CYCONFIGCPY((void CYFAR *)(CYREG_PRT15_DR), (const void CYFAR *)(BS_IOPINS0_8_VAL), 10u);
 573              		.loc 1 459 0
 574 00a0 2A46     		mov	r2, r5
 575 00a2 2049     		ldr	r1, .L35+40
 576 00a4 2048     		ldr	r0, .L35+44
 577 00a6 FFF7FEFF 		bl	CYCONFIGCPY
 578              	.LVL49:
 460:Generated_Source\PSoC5/cyfitter_cfg.c **** 	CYCONFIGCPY((void CYFAR *)(CYREG_PRT1_DM0), (const void CYFAR *)(BS_IOPINS0_1_VAL), 8u);
 579              		.loc 1 460 0
 580 00aa 0822     		movs	r2, #8
 581 00ac 1F49     		ldr	r1, .L35+48
 582 00ae 2048     		ldr	r0, .L35+52
ARM GAS  C:\Users\SWAPNIL\AppData\Local\Temp\ccz0uBy2.s 			page 20


 583 00b0 FFF7FEFF 		bl	CYCONFIGCPY
 584              	.LVL50:
 461:Generated_Source\PSoC5/cyfitter_cfg.c **** 	CYCONFIGCPY((void CYFAR *)(CYREG_PRT2_DM0), (const void CYFAR *)(BS_IOPINS0_2_VAL), 8u);
 585              		.loc 1 461 0
 586 00b4 0822     		movs	r2, #8
 587 00b6 1F49     		ldr	r1, .L35+56
 588 00b8 1F48     		ldr	r0, .L35+60
 589 00ba FFF7FEFF 		bl	CYCONFIGCPY
 590              	.LVL51:
 462:Generated_Source\PSoC5/cyfitter_cfg.c **** 	CYCONFIGCPY((void CYFAR *)(CYREG_PRT3_DM0), (const void CYFAR *)(BS_IOPINS0_3_VAL), 8u);
 591              		.loc 1 462 0
 592 00be 0822     		movs	r2, #8
 593 00c0 1E49     		ldr	r1, .L35+64
 594 00c2 1F48     		ldr	r0, .L35+68
 595 00c4 FFF7FEFF 		bl	CYCONFIGCPY
 596              	.LVL52:
 463:Generated_Source\PSoC5/cyfitter_cfg.c **** 	CYCONFIGCPY((void CYFAR *)(CYREG_PRT4_DR), (const void CYFAR *)(BS_IOPINS0_4_VAL), 10u);
 597              		.loc 1 463 0
 598 00c8 2A46     		mov	r2, r5
 599 00ca 1E49     		ldr	r1, .L35+72
 600 00cc 1E48     		ldr	r0, .L35+76
 601 00ce FFF7FEFF 		bl	CYCONFIGCPY
 602              	.LVL53:
 464:Generated_Source\PSoC5/cyfitter_cfg.c **** 	/* Switch Boost to the precision bandgap reference from its internal reference */
 465:Generated_Source\PSoC5/cyfitter_cfg.c **** 	CY_SET_REG8((void CYXDATA *)CYREG_BOOST_CR2, (CY_GET_REG8((void CYXDATA *)CYREG_BOOST_CR2) | 0x08u
 603              		.loc 1 465 0
 604 00d2 1E4A     		ldr	r2, .L35+80
 605 00d4 1378     		ldrb	r3, [r2]	@ zero_extendqisi2
 606 00d6 43F00803 		orr	r3, r3, #8
 607 00da 1370     		strb	r3, [r2]
 466:Generated_Source\PSoC5/cyfitter_cfg.c **** 
 467:Generated_Source\PSoC5/cyfitter_cfg.c **** 	/* Set Flash Cycles based on max possible frequency in case a glitch occurs during ClockSetup(). *
 468:Generated_Source\PSoC5/cyfitter_cfg.c **** 	CY_SET_XTND_REG8((void CYFAR *)(CYREG_CACHE_CC_CTL), (((CYDEV_INSTRUCT_CACHE_ENABLED) != 0) ? 0x61
 608              		.loc 1 468 0
 609 00dc 1C4D     		ldr	r5, .L35+84
 610 00de 6123     		movs	r3, #97
 611 00e0 2B70     		strb	r3, [r5]
 469:Generated_Source\PSoC5/cyfitter_cfg.c **** 	/* Setup clocks based on selections from Clock DWR */
 470:Generated_Source\PSoC5/cyfitter_cfg.c **** 	ClockSetup();
 612              		.loc 1 470 0
 613 00e2 FFF7FEFF 		bl	ClockSetup
 614              	.LVL54:
 471:Generated_Source\PSoC5/cyfitter_cfg.c **** 	/* Set Flash Cycles based on newly configured 24.00MHz Bus Clock. */
 472:Generated_Source\PSoC5/cyfitter_cfg.c **** 	CY_SET_XTND_REG8((void CYFAR *)(CYREG_CACHE_CC_CTL), (((CYDEV_INSTRUCT_CACHE_ENABLED) != 0) ? 0x81
 615              		.loc 1 472 0
 616 00e6 8123     		movs	r3, #129
 617 00e8 2B70     		strb	r3, [r5]
 473:Generated_Source\PSoC5/cyfitter_cfg.c **** 
 474:Generated_Source\PSoC5/cyfitter_cfg.c **** 	/* Perform basic analog initialization to defaults */
 475:Generated_Source\PSoC5/cyfitter_cfg.c **** 	AnalogSetDefault();
 618              		.loc 1 475 0
 619 00ea FFF7FEFF 		bl	AnalogSetDefault
 620              	.LVL55:
 476:Generated_Source\PSoC5/cyfitter_cfg.c **** 
 477:Generated_Source\PSoC5/cyfitter_cfg.c **** 	/* Configure alternate active mode */
 478:Generated_Source\PSoC5/cyfitter_cfg.c **** 	CYCONFIGCPY((void CYFAR *)CYDEV_PM_STBY_BASE, (const void CYFAR *)CYDEV_PM_ACT_BASE, 14u);
 621              		.loc 1 478 0
ARM GAS  C:\Users\SWAPNIL\AppData\Local\Temp\ccz0uBy2.s 			page 21


 622 00ee 0E22     		movs	r2, #14
 623 00f0 2146     		mov	r1, r4
 624 00f2 1848     		ldr	r0, .L35+88
 625 00f4 FFF7FEFF 		bl	CYCONFIGCPY
 626              	.LVL56:
 627 00f8 38BD     		pop	{r3, r4, r5, pc}
 628              	.L36:
 629 00fa 00BF     		.align	2
 630              	.L35:
 631 00fc E8460040 		.word	1073759976
 632 0100 00000000 		.word	.LANCHOR0
 633 0104 74000048 		.word	1207959668
 634 0108 83580040 		.word	1073764483
 635 010c 03500140 		.word	1073827843
 636 0110 A0430040 		.word	1073759136
 637 0114 5C040048 		.word	1207960668
 638 0118 02510040 		.word	1073762562
 639 011c 64040048 		.word	1207960676
 640 0120 C2510040 		.word	1073762754
 641 0124 6C040048 		.word	1207960684
 642 0128 F0510040 		.word	1073762800
 643 012c 78040048 		.word	1207960696
 644 0130 12510040 		.word	1073762578
 645 0134 80040048 		.word	1207960704
 646 0138 22510040 		.word	1073762594
 647 013c 88040048 		.word	1207960712
 648 0140 32510040 		.word	1073762610
 649 0144 90040048 		.word	1207960720
 650 0148 40510040 		.word	1073762624
 651 014c 22430040 		.word	1073759010
 652 0150 00480040 		.word	1073760256
 653 0154 B0430040 		.word	1073759152
 654              		.cfi_endproc
 655              	.LFE8:
 656              		.size	cyfitter_cfg, .-cyfitter_cfg
 657              		.section	.rodata
 658              		.align	2
 659              		.set	.LANCHOR0,. + 0
 660              		.type	cfg_memset_list.5018, %object
 661              		.size	cfg_memset_list.5018, 42
 662              	cfg_memset_list.5018:
 663 0000 50510040 		.word	1073762640
 664 0004 2000     		.short	32
 665 0006 00000140 		.4byte	1073807360
 666 000a 0004     		.short	1024
 667 000c 80040140 		.word	1073808512
 668 0010 800B     		.short	2944
 669 0012 00140140 		.4byte	1073812480
 670 0016 0008     		.short	2048
 671 0018 00400140 		.word	1073823744
 672 001c 000A     		.short	2560
 673 001e 004C0140 		.4byte	1073826816
 674 0022 0002     		.short	512
 675 0024 00500140 		.word	1073827840
 676 0028 2000     		.short	32
 677 002a 0000     		.space	2
 678              		.type	cfg_memcpy_list.5019, %object
ARM GAS  C:\Users\SWAPNIL\AppData\Local\Temp\ccz0uBy2.s 			page 22


 679              		.size	cfg_memcpy_list.5019, 10
 680              	cfg_memcpy_list.5019:
 681 002c 00040140 		.word	1073808384
 682 0030 DC030048 		.word	1207960540
 683 0034 8000     		.short	128
 684              		.text
 685              	.Letext0:
 686              		.file 2 "c:\\program files (x86)\\cypress\\psoc creator\\4.4\\psoc creator\\import\\gnu\\arm\\5.4.
 687              		.file 3 "Generated_Source\\PSoC5\\cytypes.h"
 688              		.file 4 "Generated_Source\\PSoC5\\CyLib.h"