ARM GAS  C:\Users\SWAPNIL\AppData\Local\Temp\ccrvfb4i.s 			page 1


   1              		.syntax unified
   2              		.cpu cortex-m3
   3              		.fpu softvfp
   4              		.eabi_attribute 20, 1
   5              		.eabi_attribute 21, 1
   6              		.eabi_attribute 23, 3
   7              		.eabi_attribute 24, 1
   8              		.eabi_attribute 25, 1
   9              		.eabi_attribute 26, 1
  10              		.eabi_attribute 30, 1
  11              		.eabi_attribute 34, 1
  12              		.eabi_attribute 18, 4
  13              		.thumb
  14              		.syntax unified
  15              		.file	"main.c"
  16              		.text
  17              	.Ltext0:
  18              		.cfi_sections	.debug_frame
  19              		.section	.text.main,"ax",%progbits
  20              		.align	2
  21              		.global	main
  22              		.thumb
  23              		.thumb_func
  24              		.type	main, %function
  25              	main:
  26              	.LFB64:
  27              		.file 1 "main.c"
   1:main.c        **** /* ========================================
   2:main.c        ****  *
   3:main.c        ****  * Copyright YOUR COMPANY, THE YEAR
   4:main.c        ****  * All Rights Reserved
   5:main.c        ****  * UNPUBLISHED, LICENSED SOFTWARE.
   6:main.c        ****  *
   7:main.c        ****  * CONFIDENTIAL AND PROPRIETARY INFORMATION
   8:main.c        ****  * WHICH IS THE PROPERTY OF your company.
   9:main.c        ****  *
  10:main.c        ****  * ========================================
  11:main.c        **** */
  12:main.c        **** #include "project.h"
  13:main.c        **** #include "math.h"
  14:main.c        **** #include "float.h"
  15:main.c        **** #include "stdio.h"
  16:main.c        **** #define USBFS_DEVICE (0u)
  17:main.c        **** int main(void)
  18:main.c        **** {
  28              		.loc 1 18 0
  29              		.cfi_startproc
  30              		@ args = 0, pretend = 0, frame = 200
  31              		@ frame_needed = 0, uses_anonymous_args = 0
  32 0000 30B5     		push	{r4, r5, lr}
  33              		.cfi_def_cfa_offset 12
  34              		.cfi_offset 4, -12
  35              		.cfi_offset 5, -8
  36              		.cfi_offset 14, -4
  37 0002 B3B0     		sub	sp, sp, #204
  38              		.cfi_def_cfa_offset 216
  19:main.c        ****     CyGlobalIntEnable; /* Enable global interrupts. */
ARM GAS  C:\Users\SWAPNIL\AppData\Local\Temp\ccrvfb4i.s 			page 2


  39              		.loc 1 19 0
  40              		.syntax unified
  41              	@ 19 "main.c" 1
  42 0004 62B6     		CPSIE   i
  43              	@ 0 "" 2
  20:main.c        **** 
  21:main.c        ****     /* Place your initialization/startup code here (e.g. MyInst_Start()) */
  22:main.c        ****     ADC_Start();
  44              		.loc 1 22 0
  45              		.thumb
  46              		.syntax unified
  47 0006 FFF7FEFF 		bl	ADC_Start
  48              	.LVL0:
  23:main.c        ****     PGA_Start();
  49              		.loc 1 23 0
  50 000a FFF7FEFF 		bl	PGA_Start
  51              	.LVL1:
  24:main.c        ****     LCD_Start();
  52              		.loc 1 24 0
  53 000e FFF7FEFF 		bl	LCD_Start
  54              	.LVL2:
  25:main.c        ****     VDAC_Start();
  55              		.loc 1 25 0
  56 0012 FFF7FEFF 		bl	VDAC_Start
  57              	.LVL3:
  26:main.c        ****     Opamp_Start();
  58              		.loc 1 26 0
  59 0016 FFF7FEFF 		bl	Opamp_Start
  60              	.LVL4:
  27:main.c        ****     
  28:main.c        ****     USBUART_Start(USBFS_DEVICE, USBUART_5V_OPERATION);
  61              		.loc 1 28 0
  62 001a 0121     		movs	r1, #1
  63 001c 0020     		movs	r0, #0
  64 001e FFF7FEFF 		bl	USBUART_Start
  65              	.LVL5:
  66              	.L3:
  67              	.LBB2:
  29:main.c        ****     char string[100];
  30:main.c        ****     char string_1[100];
  31:main.c        **** 
  32:main.c        ****     while(1)
  33:main.c        ****     {
  34:main.c        ****         ADC_StartConvert();//ADC start conversion
  68              		.loc 1 34 0
  69 0022 FFF7FEFF 		bl	ADC_StartConvert
  70              	.LVL6:
  35:main.c        ****         ADC_IsEndConversion(ADC_WAIT_FOR_RESULT);//waiting for result
  71              		.loc 1 35 0
  72 0026 0020     		movs	r0, #0
  73 0028 FFF7FEFF 		bl	ADC_IsEndConversion
  74              	.LVL7:
  36:main.c        ****         int adc = ADC_GetResult16();//start conversion
  75              		.loc 1 36 0
  76 002c FFF7FEFF 		bl	ADC_GetResult16
  77              	.LVL8:
  37:main.c        ****         int adc_mv = ADC_CountsTo_mVolts(adc);//count value to millivolts
ARM GAS  C:\Users\SWAPNIL\AppData\Local\Temp\ccrvfb4i.s 			page 3


  78              		.loc 1 37 0
  79 0030 FFF7FEFF 		bl	ADC_CountsTo_mVolts
  80              	.LVL9:
  81 0034 0546     		mov	r5, r0
  82              	.LVL10:
  38:main.c        ****         int grams = adc_mv * 2/3;//values in grams
  83              		.loc 1 38 0
  84 0036 4400     		lsls	r4, r0, #1
  85 0038 1E4B     		ldr	r3, .L5
  86 003a 83FB0423 		smull	r2, r3, r3, r4
  87 003e A3EBE474 		sub	r4, r3, r4, asr #31
  88              	.LVL11:
  39:main.c        ****         
  40:main.c        **** 
  41:main.c        ****         LCD_Position(0,0);
  89              		.loc 1 41 0
  90 0042 0021     		movs	r1, #0
  91 0044 0846     		mov	r0, r1
  92              	.LVL12:
  93 0046 FFF7FEFF 		bl	LCD_Position
  94              	.LVL13:
  42:main.c        ****         LCD_PrintString("Grams:   ");
  95              		.loc 1 42 0
  96 004a 1B48     		ldr	r0, .L5+4
  97 004c FFF7FEFF 		bl	LCD_PrintString
  98              	.LVL14:
  43:main.c        ****         LCD_Position(0,7);
  99              		.loc 1 43 0
 100 0050 0721     		movs	r1, #7
 101 0052 0020     		movs	r0, #0
 102 0054 FFF7FEFF 		bl	LCD_Position
 103              	.LVL15:
  44:main.c        ****         LCD_PrintNumber(grams);
 104              		.loc 1 44 0
 105 0058 A0B2     		uxth	r0, r4
 106 005a FFF7FEFF 		bl	LCD_PrintU32Number
 107              	.LVL16:
  45:main.c        **** 	
  46:main.c        ****         if(0u != USBUART_GetConfiguration()){//USB UART configuration
 108              		.loc 1 46 0
 109 005e FFF7FEFF 		bl	USBUART_GetConfiguration
 110              	.LVL17:
 111 0062 90B1     		cbz	r0, .L2
  47:main.c        ****             sprintf(string_1, "Grams = %d  \r\n", grams);
 112              		.loc 1 47 0
 113 0064 2246     		mov	r2, r4
 114 0066 1549     		ldr	r1, .L5+8
 115 0068 6846     		mov	r0, sp
 116 006a FFF7FEFF 		bl	sprintf
 117              	.LVL18:
  48:main.c        ****             USBUART_PutString(string_1);
 118              		.loc 1 48 0
 119 006e 6846     		mov	r0, sp
 120 0070 FFF7FEFF 		bl	USBUART_PutString
 121              	.LVL19:
  49:main.c        ****             printf("\n\r");
 122              		.loc 1 49 0
ARM GAS  C:\Users\SWAPNIL\AppData\Local\Temp\ccrvfb4i.s 			page 4


 123 0074 1248     		ldr	r0, .L5+12
 124 0076 FFF7FEFF 		bl	printf
 125              	.LVL20:
  50:main.c        ****              sprintf(string, "mV = %d  \r\n", adc_mv);
 126              		.loc 1 50 0
 127 007a 2A46     		mov	r2, r5
 128 007c 1149     		ldr	r1, .L5+16
 129 007e 19A8     		add	r0, sp, #100
 130 0080 FFF7FEFF 		bl	sprintf
 131              	.LVL21:
  51:main.c        ****             USBUART_PutString(string);
 132              		.loc 1 51 0
 133 0084 19A8     		add	r0, sp, #100
 134 0086 FFF7FEFF 		bl	USBUART_PutString
 135              	.LVL22:
 136              	.L2:
  52:main.c        ****         }
  53:main.c        ****          LCD_Position(1,0);
 137              		.loc 1 53 0
 138 008a 0021     		movs	r1, #0
 139 008c 0120     		movs	r0, #1
 140 008e FFF7FEFF 		bl	LCD_Position
 141              	.LVL23:
  54:main.c        ****        // LCD_PrintNumber(adc_mv);
  55:main.c        ****         LCD_PrintString("mV:   ");
 142              		.loc 1 55 0
 143 0092 0D48     		ldr	r0, .L5+20
 144 0094 FFF7FEFF 		bl	LCD_PrintString
 145              	.LVL24:
  56:main.c        ****         LCD_Position(1,4);
 146              		.loc 1 56 0
 147 0098 0421     		movs	r1, #4
 148 009a 0120     		movs	r0, #1
 149 009c FFF7FEFF 		bl	LCD_Position
 150              	.LVL25:
  57:main.c        ****         LCD_PrintNumber(adc_mv);
 151              		.loc 1 57 0
 152 00a0 A8B2     		uxth	r0, r5
 153 00a2 FFF7FEFF 		bl	LCD_PrintU32Number
 154              	.LVL26:
  58:main.c        ****         CyDelay(100);
 155              		.loc 1 58 0
 156 00a6 6420     		movs	r0, #100
 157 00a8 FFF7FEFF 		bl	CyDelay
 158              	.LVL27:
  59:main.c        ****         LCD_ClearDisplay();
 159              		.loc 1 59 0
 160 00ac 0120     		movs	r0, #1
 161 00ae FFF7FEFF 		bl	LCD_WriteControl
 162              	.LVL28:
 163              	.LBE2:
  60:main.c        ****         
  61:main.c        ****     }
 164              		.loc 1 61 0
 165 00b2 B6E7     		b	.L3
 166              	.L6:
 167              		.align	2
ARM GAS  C:\Users\SWAPNIL\AppData\Local\Temp\ccrvfb4i.s 			page 5


 168              	.L5:
 169 00b4 56555555 		.word	1431655766
 170 00b8 00000000 		.word	.LC0
 171 00bc 0C000000 		.word	.LC1
 172 00c0 1C000000 		.word	.LC2
 173 00c4 20000000 		.word	.LC3
 174 00c8 2C000000 		.word	.LC4
 175              		.cfi_endproc
 176              	.LFE64:
 177              		.size	main, .-main
 178              		.section	.rodata.str1.4,"aMS",%progbits,1
 179              		.align	2
 180              	.LC0:
 181 0000 4772616D 		.ascii	"Grams:   \000"
 181      733A2020 
 181      2000
 182 000a 0000     		.space	2
 183              	.LC1:
 184 000c 4772616D 		.ascii	"Grams = %d  \015\012\000"
 184      73203D20 
 184      25642020 
 184      0D0A00
 185 001b 00       		.space	1
 186              	.LC2:
 187 001c 0A0D00   		.ascii	"\012\015\000"
 188 001f 00       		.space	1
 189              	.LC3:
 190 0020 6D56203D 		.ascii	"mV = %d  \015\012\000"
 190      20256420 
 190      200D0A00 
 191              	.LC4:
 192 002c 6D563A20 		.ascii	"mV:   \000"
 192      202000
 193              		.text
 194              	.Letext0:
 195              		.file 2 "c:\\program files (x86)\\cypress\\psoc creator\\4.4\\psoc creator\\import\\gnu\\arm\\5.4.
 196              		.file 3 "c:\\program files (x86)\\cypress\\psoc creator\\4.4\\psoc creator\\import\\gnu\\arm\\5.4.
 197              		.file 4 "Generated_Source\\PSoC5/cytypes.h"
 198              		.file 5 "Generated_Source\\PSoC5/ADC.h"
 199              		.file 6 "Generated_Source\\PSoC5/LCD.h"
 200              		.file 7 "Generated_Source\\PSoC5/USBUART.h"
 201              		.file 8 "c:\\program files (x86)\\cypress\\psoc creator\\4.4\\psoc creator\\import\\gnu\\arm\\5.4.
 202              		.file 9 "Generated_Source\\PSoC5/USBUART_cdc.h"
 203              		.file 10 "Generated_Source\\PSoC5/CyLib.h"
 204              		.file 11 "Generated_Source\\PSoC5/PGA.h"
 205              		.file 12 "Generated_Source\\PSoC5/VDAC.h"
 206              		.file 13 "Generated_Source\\PSoC5/Opamp.h"
 207              		.file 14 "Generated_Source\\PSoC5/core_cm3.h"