ARM GAS  C:\Users\SWAPNIL\AppData\Local\Temp\ccj1z5xe.s 			page 1


   1              		.syntax unified
   2              		.cpu cortex-m3
   3              		.fpu softvfp
   4              		.eabi_attribute 20, 1
   5              		.eabi_attribute 21, 1
   6              		.eabi_attribute 23, 3
   7              		.eabi_attribute 24, 1
   8              		.eabi_attribute 25, 1
   9              		.eabi_attribute 26, 1
  10              		.eabi_attribute 30, 1
  11              		.eabi_attribute 34, 1
  12              		.eabi_attribute 18, 4
  13              		.thumb
  14              		.syntax unified
  15              		.file	"main.c"
  16              		.text
  17              	.Ltext0:
  18              		.cfi_sections	.debug_frame
  19              		.global	__aeabi_i2f
  20              		.global	__aeabi_fdiv
  21              		.global	__aeabi_fmul
  22              		.global	__aeabi_f2iz
  23              		.section	.text.main,"ax",%progbits
  24              		.align	2
  25              		.global	main
  26              		.thumb
  27              		.thumb_func
  28              		.type	main, %function
  29              	main:
  30              	.LFB63:
  31              		.file 1 "main.c"
   1:main.c        **** /* ========================================
   2:main.c        ****  *
   3:main.c        ****  * Copyright YOUR COMPANY, THE YEAR
   4:main.c        ****  * All Rights Reserved
   5:main.c        ****  * UNPUBLISHED, LICENSED SOFTWARE.
   6:main.c        ****  *
   7:main.c        ****  * CONFIDENTIAL AND PROPRIETARY INFORMATION
   8:main.c        ****  * WHICH IS THE PROPERTY OF your company.
   9:main.c        ****  *
  10:main.c        ****  * ========================================
  11:main.c        **** */
  12:main.c        **** #include "project.h"
  13:main.c        **** #include "math.h"
  14:main.c        **** #include "float.h"
  15:main.c        **** 
  16:main.c        **** int16 voltage_measured, rpm, voltage, back_emf,current_1;
  17:main.c        **** float  back_emf_in_volts,current;
  18:main.c        **** 
  19:main.c        **** 
  20:main.c        **** int main(void)
  21:main.c        **** {
  32              		.loc 1 21 0
  33              		.cfi_startproc
  34              		@ args = 0, pretend = 0, frame = 0
  35              		@ frame_needed = 0, uses_anonymous_args = 0
  36 0000 2DE9F041 		push	{r4, r5, r6, r7, r8, lr}
ARM GAS  C:\Users\SWAPNIL\AppData\Local\Temp\ccj1z5xe.s 			page 2


  37              		.cfi_def_cfa_offset 24
  38              		.cfi_offset 4, -24
  39              		.cfi_offset 5, -20
  40              		.cfi_offset 6, -16
  41              		.cfi_offset 7, -12
  42              		.cfi_offset 8, -8
  43              		.cfi_offset 14, -4
  22:main.c        ****     CyGlobalIntEnable; /* Enable global interrupts. */
  44              		.loc 1 22 0
  45              		.syntax unified
  46              	@ 22 "main.c" 1
  47 0004 62B6     		CPSIE   i
  48              	@ 0 "" 2
  23:main.c        ****     ADC_SAR_1_Start();
  49              		.loc 1 23 0
  50              		.thumb
  51              		.syntax unified
  52 0006 FFF7FEFF 		bl	ADC_SAR_1_Start
  53              	.LVL0:
  24:main.c        ****     PGA_1_Start();
  54              		.loc 1 24 0
  55 000a FFF7FEFF 		bl	PGA_1_Start
  56              	.LVL1:
  25:main.c        ****     LCD_Start();
  57              		.loc 1 25 0
  58 000e FFF7FEFF 		bl	LCD_Start
  59              	.LVL2:
  26:main.c        ****     LCD_Position(0,0);
  60              		.loc 1 26 0
  61 0012 0021     		movs	r1, #0
  62 0014 0846     		mov	r0, r1
  63 0016 FFF7FEFF 		bl	LCD_Position
  64              	.LVL3:
  27:main.c        ****     LCD_PrintString("Back EMF Test");
  65              		.loc 1 27 0
  66 001a 5248     		ldr	r0, .L4
  67 001c FFF7FEFF 		bl	LCD_PrintString
  68              	.LVL4:
  28:main.c        ****     CyDelay(2000);
  69              		.loc 1 28 0
  70 0020 4FF4FA60 		mov	r0, #2000
  71 0024 FFF7FEFF 		bl	CyDelay
  72              	.LVL5:
  29:main.c        ****     LCD_Position(0,0);
  73              		.loc 1 29 0
  74 0028 0021     		movs	r1, #0
  75 002a 0846     		mov	r0, r1
  76 002c FFF7FEFF 		bl	LCD_Position
  77              	.LVL6:
  30:main.c        ****     LCD_ClearDisplay();
  78              		.loc 1 30 0
  79 0030 0120     		movs	r0, #1
  80 0032 FFF7FEFF 		bl	LCD_WriteControl
  81              	.LVL7:
  82              	.L2:
  83              	.LBB2:
  31:main.c        ****     
ARM GAS  C:\Users\SWAPNIL\AppData\Local\Temp\ccj1z5xe.s 			page 3


  32:main.c        **** 
  33:main.c        ****     /* Place your initialization/startup code here (e.g. MyInst_Start()) */
  34:main.c        **** 
  35:main.c        ****     while(1)
  36:main.c        ****     {
  37:main.c        ****         /* Place your application code here. */
  38:main.c        ****         
  39:main.c        ****         P3_5_Write(1); //gate FET high
  84              		.loc 1 39 0 discriminator 1
  85 0036 0120     		movs	r0, #1
  86 0038 FFF7FEFF 		bl	P3_5_Write
  87              	.LVL8:
  40:main.c        ****         
  41:main.c        ****         CyDelay(500);
  88              		.loc 1 41 0 discriminator 1
  89 003c 4FF4FA70 		mov	r0, #500
  90 0040 FFF7FEFF 		bl	CyDelay
  91              	.LVL9:
  42:main.c        ****         
  43:main.c        ****         P3_5_Write(0); // gate FET low
  92              		.loc 1 43 0 discriminator 1
  93 0044 0020     		movs	r0, #0
  94 0046 FFF7FEFF 		bl	P3_5_Write
  95              	.LVL10:
  44:main.c        ****         
  45:main.c        ****         
  46:main.c        ****         ADC_SAR_1_StartConvert();
  96              		.loc 1 46 0 discriminator 1
  97 004a FFF7FEFF 		bl	ADC_SAR_1_StartConvert
  98              	.LVL11:
  47:main.c        ****         ADC_SAR_1_IsEndConversion(ADC_SAR_1_WAIT_FOR_RESULT);
  99              		.loc 1 47 0 discriminator 1
 100 004e 0020     		movs	r0, #0
 101 0050 FFF7FEFF 		bl	ADC_SAR_1_IsEndConversion
 102              	.LVL12:
  48:main.c        ****         voltage_measured = ADC_SAR_1_GetResult16();
 103              		.loc 1 48 0 discriminator 1
 104 0054 FFF7FEFF 		bl	ADC_SAR_1_GetResult16
 105              	.LVL13:
 106 0058 434B     		ldr	r3, .L4+4
 107 005a 1880     		strh	r0, [r3]	@ movhi
  49:main.c        ****         voltage = ADC_SAR_1_CountsTo_mVolts(voltage_measured);
 108              		.loc 1 49 0 discriminator 1
 109 005c FFF7FEFF 		bl	ADC_SAR_1_CountsTo_mVolts
 110              	.LVL14:
 111 0060 424B     		ldr	r3, .L4+8
 112 0062 1880     		strh	r0, [r3]	@ movhi
  50:main.c        ****         
  51:main.c        ****         /* Formulae used:
  52:main.c        ****         Ke = rpm/back_emf
  53:main.c        ****         V= (Istall- In/l)/R values refered from datasheet of the motor
  54:main.c        ****          = (1.02-012)*5
  55:main.c        ****             = 4 Volts
  56:main.c        ****         Ke= 11000/4 =  2750*/
  57:main.c        ****         
  58:main.c        ****         back_emf = 450 - voltage;
 113              		.loc 1 58 0 discriminator 1
ARM GAS  C:\Users\SWAPNIL\AppData\Local\Temp\ccj1z5xe.s 			page 4


 114 0064 C0F5E170 		rsb	r0, r0, #450
 115 0068 00B2     		sxth	r0, r0
 116 006a 414E     		ldr	r6, .L4+12
 117 006c 3080     		strh	r0, [r6]	@ movhi
  59:main.c        ****         back_emf_in_volts = (float)back_emf/100.0;
 118              		.loc 1 59 0 discriminator 1
 119 006e FFF7FEFF 		bl	__aeabi_i2f
 120              	.LVL15:
 121 0072 0446     		mov	r4, r0
 122 0074 3F49     		ldr	r1, .L4+16
 123 0076 FFF7FEFF 		bl	__aeabi_fdiv
 124              	.LVL16:
 125 007a 3F4B     		ldr	r3, .L4+20
 126 007c 1860     		str	r0, [r3]	@ float
  60:main.c        ****         rpm = 2623 * back_emf_in_volts;
 127              		.loc 1 60 0 discriminator 1
 128 007e 3F49     		ldr	r1, .L4+24
 129 0080 FFF7FEFF 		bl	__aeabi_fmul
 130              	.LVL17:
 131 0084 3E4F     		ldr	r7, .L4+28
 132 0086 FFF7FEFF 		bl	__aeabi_f2iz
 133              	.LVL18:
 134 008a 3880     		strh	r0, [r7]	@ movhi
 135              	.LVL19:
  61:main.c        ****         
  62:main.c        ****         int16 voltage_motor = 450 - voltage;
  63:main.c        ****         current = (float)voltage_motor / 5;
 136              		.loc 1 63 0 discriminator 1
 137 008c 3D49     		ldr	r1, .L4+32
 138 008e 2046     		mov	r0, r4
 139 0090 FFF7FEFF 		bl	__aeabi_fdiv
 140              	.LVL20:
 141 0094 3C4B     		ldr	r3, .L4+36
 142 0096 1860     		str	r0, [r3]	@ float
  64:main.c        ****         current_1= current;
 143              		.loc 1 64 0 discriminator 1
 144 0098 3C4D     		ldr	r5, .L4+40
 145 009a FFF7FEFF 		bl	__aeabi_f2iz
 146              	.LVL21:
 147 009e 2880     		strh	r0, [r5]	@ movhi
  65:main.c        ****         
  66:main.c        ****         P3_6_Write(1);
 148              		.loc 1 66 0 discriminator 1
 149 00a0 0120     		movs	r0, #1
 150 00a2 FFF7FEFF 		bl	P3_6_Write
 151              	.LVL22:
  67:main.c        ****         /* Display values on LCD*/
  68:main.c        ****         LCD_Position(0,0);
 152              		.loc 1 68 0 discriminator 1
 153 00a6 0021     		movs	r1, #0
 154 00a8 0846     		mov	r0, r1
 155 00aa FFF7FEFF 		bl	LCD_Position
 156              	.LVL23:
  69:main.c        ****         LCD_PrintString("Vb=    ");
 157              		.loc 1 69 0 discriminator 1
 158 00ae 3848     		ldr	r0, .L4+44
 159 00b0 FFF7FEFF 		bl	LCD_PrintString
ARM GAS  C:\Users\SWAPNIL\AppData\Local\Temp\ccj1z5xe.s 			page 5


 160              	.LVL24:
  70:main.c        ****         LCD_Position(0,2);
 161              		.loc 1 70 0 discriminator 1
 162 00b4 0221     		movs	r1, #2
 163 00b6 0020     		movs	r0, #0
 164 00b8 FFF7FEFF 		bl	LCD_Position
 165              	.LVL25:
  71:main.c        ****         LCD_PrintNumber(back_emf/100);
 166              		.loc 1 71 0 discriminator 1
 167 00bc B6F90030 		ldrsh	r3, [r6]
 168 00c0 344C     		ldr	r4, .L4+48
 169 00c2 84FB0320 		smull	r2, r0, r4, r3
 170 00c6 DB17     		asrs	r3, r3, #31
 171 00c8 C3EB6010 		rsb	r0, r3, r0, asr #5
 172 00cc 80B2     		uxth	r0, r0
 173 00ce FFF7FEFF 		bl	LCD_PrintU32Number
 174              	.LVL26:
  72:main.c        ****         LCD_Position(0,3);
 175              		.loc 1 72 0 discriminator 1
 176 00d2 0321     		movs	r1, #3
 177 00d4 0020     		movs	r0, #0
 178 00d6 FFF7FEFF 		bl	LCD_Position
 179              	.LVL27:
  73:main.c        ****         LCD_PrintString(".");             
 180              		.loc 1 73 0 discriminator 1
 181 00da DFF8C480 		ldr	r8, .L4+60
 182 00de 4046     		mov	r0, r8
 183 00e0 FFF7FEFF 		bl	LCD_PrintString
 184              	.LVL28:
  74:main.c        ****         LCD_PrintNumber(back_emf%100);
 185              		.loc 1 74 0 discriminator 1
 186 00e4 B6F90020 		ldrsh	r2, [r6]
 187 00e8 84FB0230 		smull	r3, r0, r4, r2
 188 00ec D317     		asrs	r3, r2, #31
 189 00ee C3EB6010 		rsb	r0, r3, r0, asr #5
 190 00f2 6426     		movs	r6, #100
 191 00f4 06FB1020 		mls	r0, r6, r0, r2
 192 00f8 80B2     		uxth	r0, r0
 193 00fa FFF7FEFF 		bl	LCD_PrintU32Number
 194              	.LVL29:
  75:main.c        ****       
  76:main.c        ****         // display value of rpm
  77:main.c        ****         LCD_Position(1,0);
 195              		.loc 1 77 0 discriminator 1
 196 00fe 0021     		movs	r1, #0
 197 0100 0120     		movs	r0, #1
 198 0102 FFF7FEFF 		bl	LCD_Position
 199              	.LVL30:
  78:main.c        ****         LCD_PrintString("RPM=      ");
 200              		.loc 1 78 0 discriminator 1
 201 0106 2448     		ldr	r0, .L4+52
 202 0108 FFF7FEFF 		bl	LCD_PrintString
 203              	.LVL31:
  79:main.c        ****         LCD_Position(1,5);
 204              		.loc 1 79 0 discriminator 1
 205 010c 0521     		movs	r1, #5
 206 010e 0120     		movs	r0, #1
ARM GAS  C:\Users\SWAPNIL\AppData\Local\Temp\ccj1z5xe.s 			page 6


 207 0110 FFF7FEFF 		bl	LCD_Position
 208              	.LVL32:
  80:main.c        ****         LCD_PrintNumber(rpm);
 209              		.loc 1 80 0 discriminator 1
 210 0114 3888     		ldrh	r0, [r7]
 211 0116 FFF7FEFF 		bl	LCD_PrintU32Number
 212              	.LVL33:
  81:main.c        ****         
  82:main.c        ****         
  83:main.c        ****         //display value of Current
  84:main.c        ****         LCD_Position(0,7);
 213              		.loc 1 84 0 discriminator 1
 214 011a 0721     		movs	r1, #7
 215 011c 0020     		movs	r0, #0
 216 011e FFF7FEFF 		bl	LCD_Position
 217              	.LVL34:
  85:main.c        ****         LCD_PrintString("I=  mA    ");
 218              		.loc 1 85 0 discriminator 1
 219 0122 1E48     		ldr	r0, .L4+56
 220 0124 FFF7FEFF 		bl	LCD_PrintString
 221              	.LVL35:
  86:main.c        ****         LCD_Position(0,9);
 222              		.loc 1 86 0 discriminator 1
 223 0128 0921     		movs	r1, #9
 224 012a 0020     		movs	r0, #0
 225 012c FFF7FEFF 		bl	LCD_Position
 226              	.LVL36:
  87:main.c        ****         LCD_PrintNumber(current_1);
 227              		.loc 1 87 0 discriminator 1
 228 0130 2888     		ldrh	r0, [r5]
 229 0132 FFF7FEFF 		bl	LCD_PrintU32Number
 230              	.LVL37:
  88:main.c        ****         LCD_Position(0,11);
 231              		.loc 1 88 0 discriminator 1
 232 0136 0B21     		movs	r1, #11
 233 0138 0020     		movs	r0, #0
 234 013a FFF7FEFF 		bl	LCD_Position
 235              	.LVL38:
  89:main.c        ****         LCD_PrintString(".");
 236              		.loc 1 89 0 discriminator 1
 237 013e 4046     		mov	r0, r8
 238 0140 FFF7FEFF 		bl	LCD_PrintString
 239              	.LVL39:
  90:main.c        ****         LCD_PrintNumber(current_1%100);
 240              		.loc 1 90 0 discriminator 1
 241 0144 B5F90020 		ldrsh	r2, [r5]
 242 0148 84FB0230 		smull	r3, r0, r4, r2
 243 014c D317     		asrs	r3, r2, #31
 244 014e C3EB6010 		rsb	r0, r3, r0, asr #5
 245 0152 06FB1020 		mls	r0, r6, r0, r2
 246 0156 80B2     		uxth	r0, r0
 247 0158 FFF7FEFF 		bl	LCD_PrintU32Number
 248              	.LVL40:
  91:main.c        ****         P3_6_Write(0);
 249              		.loc 1 91 0 discriminator 1
 250 015c 0020     		movs	r0, #0
 251 015e FFF7FEFF 		bl	P3_6_Write
ARM GAS  C:\Users\SWAPNIL\AppData\Local\Temp\ccj1z5xe.s 			page 7


 252              	.LVL41:
 253 0162 68E7     		b	.L2
 254              	.L5:
 255              		.align	2
 256              	.L4:
 257 0164 00000000 		.word	.LC0
 258 0168 00000000 		.word	voltage_measured
 259 016c 00000000 		.word	voltage
 260 0170 00000000 		.word	back_emf
 261 0174 0000C842 		.word	1120403456
 262 0178 00000000 		.word	back_emf_in_volts
 263 017c 00F02345 		.word	1159983104
 264 0180 00000000 		.word	rpm
 265 0184 0000A040 		.word	1084227584
 266 0188 00000000 		.word	current
 267 018c 00000000 		.word	current_1
 268 0190 10000000 		.word	.LC1
 269 0194 1F85EB51 		.word	1374389535
 270 0198 1C000000 		.word	.LC3
 271 019c 28000000 		.word	.LC4
 272 01a0 18000000 		.word	.LC2
 273              	.LBE2:
 274              		.cfi_endproc
 275              	.LFE63:
 276              		.size	main, .-main
 277              		.comm	current,4,4
 278              		.comm	back_emf_in_volts,4,4
 279              		.comm	current_1,2,2
 280              		.comm	back_emf,2,2
 281              		.comm	voltage,2,2
 282              		.comm	rpm,2,2
 283              		.comm	voltage_measured,2,2
 284              		.section	.rodata.str1.4,"aMS",%progbits,1
 285              		.align	2
 286              	.LC0:
 287 0000 4261636B 		.ascii	"Back EMF Test\000"
 287      20454D46 
 287      20546573 
 287      7400
 288 000e 0000     		.space	2
 289              	.LC1:
 290 0010 56623D20 		.ascii	"Vb=    \000"
 290      20202000 
 291              	.LC2:
 292 0018 2E00     		.ascii	".\000"
 293 001a 0000     		.space	2
 294              	.LC3:
 295 001c 52504D3D 		.ascii	"RPM=      \000"
 295      20202020 
 295      202000
 296 0027 00       		.space	1
 297              	.LC4:
 298 0028 493D2020 		.ascii	"I=  mA    \000"
 298      6D412020 
 298      202000
 299              		.text
 300              	.Letext0:
ARM GAS  C:\Users\SWAPNIL\AppData\Local\Temp\ccj1z5xe.s 			page 8


 301              		.file 2 "c:\\program files (x86)\\cypress\\psoc creator\\4.4\\psoc creator\\import\\gnu\\arm\\5.4.
 302              		.file 3 "c:\\program files (x86)\\cypress\\psoc creator\\4.4\\psoc creator\\import\\gnu\\arm\\5.4.
 303              		.file 4 "Generated_Source\\PSoC5/cytypes.h"
 304              		.file 5 "Generated_Source\\PSoC5/core_cm3.h"
 305              		.file 6 "Generated_Source\\PSoC5/P3_5.h"
 306              		.file 7 "Generated_Source\\PSoC5/CyLib.h"
 307              		.file 8 "Generated_Source\\PSoC5/ADC_SAR_1.h"
 308              		.file 9 "Generated_Source\\PSoC5/P3_6.h"
 309              		.file 10 "Generated_Source\\PSoC5/LCD.h"
 310              		.file 11 "Generated_Source\\PSoC5/PGA_1.h"