ARM GAS  C:\Users\SWAPNIL\AppData\Local\Temp\ccjo46Oz.s 			page 1


   1              		.syntax unified
   2              		.cpu cortex-m3
   3              		.fpu softvfp
   4              		.eabi_attribute 20, 1
   5              		.eabi_attribute 21, 1
   6              		.eabi_attribute 23, 3
   7              		.eabi_attribute 24, 1
   8              		.eabi_attribute 25, 1
   9              		.eabi_attribute 26, 1
  10              		.eabi_attribute 30, 1
  11              		.eabi_attribute 34, 1
  12              		.eabi_attribute 18, 4
  13              		.thumb
  14              		.syntax unified
  15              		.file	"main.c"
  16              		.text
  17              	.Ltext0:
  18              		.cfi_sections	.debug_frame
  19              		.section	.text.main,"ax",%progbits
  20              		.align	2
  21              		.global	main
  22              		.thumb
  23              		.thumb_func
  24              		.type	main, %function
  25              	main:
  26              	.LFB63:
  27              		.file 1 "main.c"
   1:main.c        **** /* ========================================
   2:main.c        ****  *
   3:main.c        ****  * Copyright YOUR COMPANY, THE YEAR
   4:main.c        ****  * All Rights Reserved
   5:main.c        ****  * UNPUBLISHED, LICENSED SOFTWARE.
   6:main.c        ****  *
   7:main.c        ****  * CONFIDENTIAL AND PROPRIETARY INFORMATION
   8:main.c        ****  * WHICH IS THE PROPERTY OF your company.
   9:main.c        ****  *
  10:main.c        ****  * ========================================
  11:main.c        **** */
  12:main.c        **** #include "project.h"
  13:main.c        **** 
  14:main.c        **** int main(void)
  15:main.c        **** {
  28              		.loc 1 15 0
  29              		.cfi_startproc
  30              		@ args = 0, pretend = 0, frame = 0
  31              		@ frame_needed = 0, uses_anonymous_args = 0
  32 0000 38B5     		push	{r3, r4, r5, lr}
  33              		.cfi_def_cfa_offset 16
  34              		.cfi_offset 3, -16
  35              		.cfi_offset 4, -12
  36              		.cfi_offset 5, -8
  37              		.cfi_offset 14, -4
  16:main.c        ****     CyGlobalIntEnable; /* Enable global interrupts. */
  38              		.loc 1 16 0
  39              		.syntax unified
  40              	@ 16 "main.c" 1
  41 0002 62B6     		CPSIE   i
ARM GAS  C:\Users\SWAPNIL\AppData\Local\Temp\ccjo46Oz.s 			page 2


  42              	@ 0 "" 2
  17:main.c        ****     
  18:main.c        **** 	ADC_SAR_1_Start();
  43              		.loc 1 18 0
  44              		.thumb
  45              		.syntax unified
  46 0004 FFF7FEFF 		bl	ADC_SAR_1_Start
  47              	.LVL0:
  19:main.c        **** 	LCD_Char_1_Start();
  48              		.loc 1 19 0
  49 0008 FFF7FEFF 		bl	LCD_Char_1_Start
  50              	.LVL1:
  51              	.L2:
  20:main.c        **** 	uint16 pot_raw, mV, angle;
  21:main.c        ****     /* Place your initialization/startup code here (e.g. MyInst_Start()) */
  22:main.c        **** 
  23:main.c        ****     while(1)
  24:main.c        ****     {
  25:main.c        ****         /* Place your application code here. */
  26:main.c        ****         ADC_SAR_1_StartConvert();
  52              		.loc 1 26 0 discriminator 1
  53 000c FFF7FEFF 		bl	ADC_SAR_1_StartConvert
  54              	.LVL2:
  27:main.c        **** 		ADC_SAR_1_IsEndConversion(ADC_SAR_1_WAIT_FOR_RESULT);
  55              		.loc 1 27 0 discriminator 1
  56 0010 0020     		movs	r0, #0
  57 0012 FFF7FEFF 		bl	ADC_SAR_1_IsEndConversion
  58              	.LVL3:
  28:main.c        ****         //CyDelay(100);
  29:main.c        **** 		pot_raw = ADC_SAR_1_GetResult16();
  59              		.loc 1 29 0 discriminator 1
  60 0016 FFF7FEFF 		bl	ADC_SAR_1_GetResult16
  61              	.LVL4:
  30:main.c        ****        // CyDelay(100);
  31:main.c        **** 		mV= ADC_SAR_1_CountsTo_mVolts(pot_raw);
  62              		.loc 1 31 0 discriminator 1
  63 001a FFF7FEFF 		bl	ADC_SAR_1_CountsTo_mVolts
  64              	.LVL5:
  65 001e 85B2     		uxth	r5, r0
  66              	.LVL6:
  32:main.c        **** 		angle = (mV*270)/5000;
  67              		.loc 1 32 0 discriminator 1
  68 0020 4FF48773 		mov	r3, #270
  69 0024 03FB05F3 		mul	r3, r3, r5
  70 0028 144C     		ldr	r4, .L4
  71 002a 84FB0324 		smull	r2, r4, r4, r3
  72 002e DB17     		asrs	r3, r3, #31
  73 0030 C3EBE424 		rsb	r4, r3, r4, asr #11
  74              	.LVL7:
  33:main.c        ****         
  34:main.c        **** 		LCD_Char_1_ClearDisplay();
  75              		.loc 1 34 0 discriminator 1
  76 0034 0120     		movs	r0, #1
  77 0036 FFF7FEFF 		bl	LCD_Char_1_WriteControl
  78              	.LVL8:
  35:main.c        ****         LCD_Char_1_Position(1,0);
  79              		.loc 1 35 0 discriminator 1
ARM GAS  C:\Users\SWAPNIL\AppData\Local\Temp\ccjo46Oz.s 			page 3


  80 003a 0021     		movs	r1, #0
  81 003c 0120     		movs	r0, #1
  82 003e FFF7FEFF 		bl	LCD_Char_1_Position
  83              	.LVL9:
  36:main.c        **** 		LCD_Char_1_PrintString("PotmV:   ");     
  84              		.loc 1 36 0 discriminator 1
  85 0042 0F48     		ldr	r0, .L4+4
  86 0044 FFF7FEFF 		bl	LCD_Char_1_PrintString
  87              	.LVL10:
  37:main.c        **** 		LCD_Char_1_Position(1,7);
  88              		.loc 1 37 0 discriminator 1
  89 0048 0721     		movs	r1, #7
  90 004a 0120     		movs	r0, #1
  91 004c FFF7FEFF 		bl	LCD_Char_1_Position
  92              	.LVL11:
  38:main.c        **** 		LCD_Char_1_PrintNumber(mV);
  93              		.loc 1 38 0 discriminator 1
  94 0050 2846     		mov	r0, r5
  95 0052 FFF7FEFF 		bl	LCD_Char_1_PrintU32Number
  96              	.LVL12:
  39:main.c        **** 		LCD_Char_1_Position(0,0);
  97              		.loc 1 39 0 discriminator 1
  98 0056 0021     		movs	r1, #0
  99 0058 0846     		mov	r0, r1
 100 005a FFF7FEFF 		bl	LCD_Char_1_Position
 101              	.LVL13:
  40:main.c        **** 		LCD_Char_1_PrintString("Angle:   ");     
 102              		.loc 1 40 0 discriminator 1
 103 005e 0948     		ldr	r0, .L4+8
 104 0060 FFF7FEFF 		bl	LCD_Char_1_PrintString
 105              	.LVL14:
  41:main.c        **** 		LCD_Char_1_Position(0,7);
 106              		.loc 1 41 0 discriminator 1
 107 0064 0721     		movs	r1, #7
 108 0066 0020     		movs	r0, #0
 109 0068 FFF7FEFF 		bl	LCD_Char_1_Position
 110              	.LVL15:
  42:main.c        **** 		LCD_Char_1_PrintNumber(angle);
 111              		.loc 1 42 0 discriminator 1
 112 006c A0B2     		uxth	r0, r4
 113 006e FFF7FEFF 		bl	LCD_Char_1_PrintU32Number
 114              	.LVL16:
  43:main.c        **** 		CyDelay(100);
 115              		.loc 1 43 0 discriminator 1
 116 0072 6420     		movs	r0, #100
 117 0074 FFF7FEFF 		bl	CyDelay
 118              	.LVL17:
 119 0078 C8E7     		b	.L2
 120              	.L5:
 121 007a 00BF     		.align	2
 122              	.L4:
 123 007c AD8BDB68 		.word	1759218605
 124 0080 00000000 		.word	.LC0
 125 0084 0C000000 		.word	.LC1
 126              		.cfi_endproc
 127              	.LFE63:
 128              		.size	main, .-main
ARM GAS  C:\Users\SWAPNIL\AppData\Local\Temp\ccjo46Oz.s 			page 4


 129              		.section	.rodata.str1.4,"aMS",%progbits,1
 130              		.align	2
 131              	.LC0:
 132 0000 506F746D 		.ascii	"PotmV:   \000"
 132      563A2020 
 132      2000
 133 000a 0000     		.space	2
 134              	.LC1:
 135 000c 416E676C 		.ascii	"Angle:   \000"
 135      653A2020 
 135      2000
 136              		.text
 137              	.Letext0:
 138              		.file 2 "c:\\program files (x86)\\cypress\\psoc creator\\4.4\\psoc creator\\import\\gnu\\arm\\5.4.
 139              		.file 3 "c:\\program files (x86)\\cypress\\psoc creator\\4.4\\psoc creator\\import\\gnu\\arm\\5.4.
 140              		.file 4 "Generated_Source\\PSoC5/cytypes.h"
 141              		.file 5 "Generated_Source\\PSoC5/ADC_SAR_1.h"
 142              		.file 6 "Generated_Source\\PSoC5/LCD_Char_1.h"
 143              		.file 7 "Generated_Source\\PSoC5/CyLib.h"
 144              		.file 8 "Generated_Source\\PSoC5/core_cm3.h"